Certificate:
    Data:
        Version: 3 (0x2)
        Serial Number: 2 (0x2)
        Signature Algorithm: sha1WithRSAEncryption
        Issuer: C=BA, ST=RS, O=Elektrotehnicki fakultet, OU=CA_MilanaKnezevic, CN=CA1
        Validity
            Not Before: Apr 14 21:46:46 2022 GMT
            Not After : Apr 14 21:46:46 2023 GMT
        Subject: C=BA, ST=RS, O=Elektrotehnicki fakultet, OU=CA_MilanaKnezevic, CN=KLJUC
        Subject Public Key Info:
            Public Key Algorithm: rsaEncryption
                Public-Key: (4096 bit)
                Modulus:
                    00:e9:14:d6:b7:4b:a7:ab:f3:22:dd:dc:69:e7:ff:
                    52:6f:73:9e:01:fa:19:46:73:e9:83:26:87:48:84:
                    70:40:12:00:b2:37:23:fa:01:20:43:5e:66:e1:74:
                    ad:f3:a6:80:63:b8:78:ca:79:ba:de:e5:d4:80:07:
                    a3:6a:ef:9e:d9:df:fd:73:ea:ed:f0:5c:56:7b:d0:
                    b9:9a:0c:b7:7e:7a:e4:dd:ad:37:75:7f:e8:0b:2d:
                    94:bd:a6:f4:87:6e:0d:2c:78:ae:b3:1b:29:91:a4:
                    08:8b:c1:1f:0f:2c:e6:36:40:03:97:02:86:06:bb:
                    93:d5:d0:d8:61:d4:47:bf:ec:99:b9:9e:10:d0:31:
                    45:f6:40:e8:8e:be:19:5c:0a:cf:29:a7:39:3c:eb:
                    4c:b6:e3:90:3f:9f:bf:8b:3e:d6:8c:31:74:6c:a2:
                    aa:88:1f:dc:63:dd:af:52:4a:50:bd:57:33:0b:e8:
                    ce:5a:74:66:27:ca:f1:ad:d3:af:8c:67:2d:8b:bb:
                    88:2b:d4:3d:c1:c9:fe:c3:a7:fe:90:0b:ec:27:ca:
                    68:93:37:48:6a:44:73:d2:01:bf:86:df:f5:90:ee:
                    ae:92:08:4d:6f:c6:04:64:dc:84:7a:ea:04:ba:f8:
                    13:8e:f3:5a:22:50:39:13:7f:86:ed:8e:40:73:f1:
                    3a:a9:6e:84:f0:b7:ee:c4:24:4e:69:07:ae:d2:af:
                    5e:3f:d1:40:d7:43:2b:14:70:46:95:47:44:0c:69:
                    0f:da:e0:fe:ab:11:e5:5c:91:9a:2d:a4:f0:a4:bc:
                    62:95:c3:5f:b4:74:5f:6b:61:49:43:4c:0d:a7:57:
                    f5:a1:75:56:9a:0b:23:0b:3e:53:f3:7f:29:59:e3:
                    60:6c:a7:ac:0e:5b:3c:c2:88:bc:87:85:51:ba:1f:
                    2d:ed:fc:d1:62:c1:8d:4e:01:d3:fe:eb:00:82:d8:
                    91:37:f6:4a:23:ba:c2:48:5b:27:f5:58:36:1f:7f:
                    f5:1d:e0:73:1c:cf:9d:89:3f:f5:fc:2e:a8:b1:53:
                    a9:0c:78:7c:1e:97:e9:3a:20:45:74:05:fa:54:1e:
                    ca:13:00:4a:57:05:a1:dd:3f:72:4b:f7:9d:61:b2:
                    47:90:af:17:58:f4:dd:da:c4:3f:6e:22:55:48:5b:
                    ad:05:61:2a:93:f1:b5:65:32:f5:43:ac:08:00:61:
                    5f:e2:99:fc:30:cf:98:77:99:93:91:ac:06:57:5c:
                    e5:4f:01:be:34:29:48:bc:27:5e:3f:b1:62:f5:39:
                    01:8d:c4:32:95:9c:35:d9:af:99:06:ef:8a:fc:7b:
                    d5:02:d8:1b:b9:2f:97:f8:88:d2:97:d9:c0:19:4e:
                    4c:66:51
                Exponent: 65537 (0x10001)
        X509v3 extensions:
            X509v3 Basic Constraints: 
                CA:FALSE
            X509v3 Extended Key Usage: 
                TLS Web Client Authentication
            Netscape Comment: 
                OpenSSL Generated Certificate
            X509v3 Subject Key Identifier: 
                85:C9:4B:94:4D:57:1E:B6:D8:54:47:21:6C:27:95:92:F9:33:60:16
            X509v3 Authority Key Identifier: 
                E1:D2:3B:37:D4:03:84:E5:D8:BA:BB:42:3E:F6:A3:88:0A:05:25:1A
            X509v3 CRL Distribution Points: 
                Full Name:
                  URI:http://192.168.21.89/rootcrl.pem
    Signature Algorithm: sha1WithRSAEncryption
    Signature Value:
        41:18:bc:98:c5:f3:18:ee:a4:3b:0d:6f:29:02:68:d4:f2:65:
        f6:29:29:99:03:a8:1d:8c:06:97:1d:18:06:81:94:c5:a8:83:
        b2:2c:84:8e:c0:f6:4c:b8:07:64:27:54:55:67:b8:38:be:9a:
        78:08:83:cb:12:57:67:01:f8:0e:26:ca:88:d7:89:2d:72:47:
        e2:c5:ec:89:2b:f8:d4:52:80:6d:48:b2:34:22:76:ee:7e:28:
        d2:a0:05:0f:d5:70:d1:37:53:25:40:27:4f:65:bf:2f:d3:e2:
        7f:e3:7a:0a:e6:22:ae:52:e7:d9:1f:9c:89:3c:25:03:8c:3d:
        45:9a:20:1d:e4:e0:b7:5e:9c:e5:76:70:e7:ea:8b:2c:35:1b:
        a8:6c:7c:d4:ed:0c:bc:c2:a4:e5:09:1d:88:e4:a4:3b:78:41:
        ce:94:9d:4b:0e:94:97:55:ba:62:a8:0c:ac:ba:46:4b:6a:15:
        22:64:d0:94:cc:7d:50:8f:c4:ef:7b:c4:65:df:7b:9e:87:04:
        59:c4:c3:90:ab:71:09:06:b2:70:95:15:51:73:41:2f:3e:3f:
        31:7d:40:89:1c:e9:15:0e:f0:a9:2e:9d:ff:f5:d9:16:4c:dc:
        c7:aa:4f:f4:b8:2d:1e:7c:59:48:e6:d7:55:7a:31:0d:58:c8:
        b3:02:d2:bf:ec:69:04:b0:fc:55:cc:7a:fe:df:d5:16:da:45:
        e2:e0:0e:a0:26:85:ae:83:c0:08:e0:cb:51:9d:9b:52:07:de:
        4a:6b:55:44:48:9d:71:18:5c:0e:8f:97:b2:2f:e7:67:c1:bb:
        e1:27:79:98:13:72:68:a1:ed:9f:2c:21:60:92:10:b7:41:ba:
        a5:81:a3:93:f5:7f:72:31:b8:79:82:ff:5f:ac:5e:41:da:4d:
        00:2d:44:be:fd:d3:c2:e8:ef:68:4b:31:54:34:e0:1a:69:6d:
        c4:cf:54:9c:ce:92:9a:2c:9d:53:dc:4b:e9:dc:a3:7a:ab:64:
        92:d5:38:18:78:a5:08:c9:8f:86:ac:a1:6c:9e:e0:69:ae:87:
        fb:1c:57:4a:a4:d1:a0:de:70:2e:0b:09:b2:b2:11:55:54:5b:
        01:70:cd:9b:5a:95:c3:a7:59:88:f5:85:b5:2b:fd:de:bb:45:
        5b:ce:82:ee:b0:f1:32:82:40:ac:81:fd:4c:3b:0d:e7:3d:0b:
        68:40:b2:21:7e:e4:72:9c:51:35:84:1a:8d:e9:8c:98:fc:0d:
        dc:6a:bf:04:54:d4:62:9a:ef:0f:3e:12:7b:e9:6f:8e:15:af:
        c3:2b:73:48:1f:73:52:68:f9:f3:73:26:da:4e:f0:79:7e:fe:
        bc:81:51:f7:32:2a:66:5f
-----BEGIN CERTIFICATE-----
MIIGEDCCA/igAwIBAgIBAjANBgkqhkiG9w0BAQUFADBnMQswCQYDVQQGEwJCQTEL
MAkGA1UECBMCUlMxITAfBgNVBAoTGEVsZWt0cm90ZWhuaWNraSBmYWt1bHRldDEa
MBgGA1UECxQRQ0FfTWlsYW5hS25lemV2aWMxDDAKBgNVBAMTA0NBMTAeFw0yMjA0
MTQyMTQ2NDZaFw0yMzA0MTQyMTQ2NDZaMGkxCzAJBgNVBAYTAkJBMQswCQYDVQQI
EwJSUzEhMB8GA1UEChMYRWxla3Ryb3RlaG5pY2tpIGZha3VsdGV0MRowGAYDVQQL
FBFDQV9NaWxhbmFLbmV6ZXZpYzEOMAwGA1UEAxMFS0xKVUMwggIiMA0GCSqGSIb3
DQEBAQUAA4ICDwAwggIKAoICAQDpFNa3S6er8yLd3Gnn/1Jvc54B+hlGc+mDJodI
hHBAEgCyNyP6ASBDXmbhdK3zpoBjuHjKebre5dSAB6Nq757Z3/1z6u3wXFZ70Lma
DLd+euTdrTd1f+gLLZS9pvSHbg0seK6zGymRpAiLwR8PLOY2QAOXAoYGu5PV0Nhh
1Ee/7Jm5nhDQMUX2QOiOvhlcCs8ppzk860y245A/n7+LPtaMMXRsoqqIH9xj3a9S
SlC9VzML6M5adGYnyvGt06+MZy2Lu4gr1D3Byf7Dp/6QC+wnymiTN0hqRHPSAb+G
3/WQ7q6SCE1vxgRk3IR66gS6+BOO81oiUDkTf4btjkBz8TqpboTwt+7EJE5pB67S
r14/0UDXQysUcEaVR0QMaQ/a4P6rEeVckZotpPCkvGKVw1+0dF9rYUlDTA2nV/Wh
dVaaCyMLPlPzfylZ42Bsp6wOWzzCiLyHhVG6Hy3t/NFiwY1OAdP+6wCC2JE39koj
usJIWyf1WDYff/Ud4HMcz52JP/X8LqixU6kMeHwel+k6IEV0BfpUHsoTAEpXBaHd
P3JL951hskeQrxdY9N3axD9uIlVIW60FYSqT8bVlMvVDrAgAYV/imfwwz5h3mZOR
rAZXXOVPAb40KUi8J14/sWL1OQGNxDKVnDXZr5kG74r8e9UC2Bu5L5f4iNKX2cAZ
TkxmUQIDAQABo4HEMIHBMAkGA1UdEwQCMAAwEwYDVR0lBAwwCgYIKwYBBQUHAwIw
LAYJYIZIAYb4QgENBB8WHU9wZW5TU0wgR2VuZXJhdGVkIENlcnRpZmljYXRlMB0G
A1UdDgQWBBSFyUuUTVcetthURyFsJ5WS+TNgFjAfBgNVHSMEGDAWgBTh0js31AOE
5di6u0I+9qOICgUlGjAxBgNVHR8EKjAoMCagJKAihiBodHRwOi8vMTkyLjE2OC4y
MS44OS9yb290Y3JsLnBlbTANBgkqhkiG9w0BAQUFAAOCAgEAQRi8mMXzGO6kOw1v
KQJo1PJl9ikpmQOoHYwGlx0YBoGUxaiDsiyEjsD2TLgHZCdUVWe4OL6aeAiDyxJX
ZwH4DibKiNeJLXJH4sXsiSv41FKAbUiyNCJ27n4o0qAFD9Vw0TdTJUAnT2W/L9Pi
f+N6CuYirlLn2R+ciTwlA4w9RZogHeTgt16c5XZw5+qLLDUbqGx81O0MvMKk5Qkd
iOSkO3hBzpSdSw6Ul1W6YqgMrLpGS2oVImTQlMx9UI/E73vEZd97nocEWcTDkKtx
CQaycJUVUXNBLz4/MX1AiRzpFQ7wqS6d//XZFkzcx6pP9LgtHnxZSObXVXoxDVjI
swLSv+xpBLD8Vcx6/t/VFtpF4uAOoCaFroPACODLUZ2bUgfeSmtVREidcRhcDo+X
si/nZ8G74Sd5mBNyaKHtnywhYJIQt0G6pYGjk/V/cjG4eYL/X6xeQdpNAC1Evv3T
wujvaEsxVDTgGmltxM9UnM6SmiydU9xL6dyjeqtkktU4GHilCMmPhqyhbJ7gaa6H
+xxXSqTRoN5wLgsJsrIRVVRbAXDNm1qVw6dZiPWFtSv93rtFW86C7rDxMoJArIH9
TDsN5z0LaECyIX7kcpxRNYQajemMmPwN3Gq/BFTUYprvDz4Se+lvjhWvwytzSB9z
Umj583Mm2k7weX7+vIFR9zIqZl8=
-----END CERTIFICATE-----
