Certificate:
    Data:
        Version: 3 (0x2)
        Serial Number: 3 (0x3)
        Signature Algorithm: sha1WithRSAEncryption
        Issuer: C=BA, ST=RS, O=Elektrotehnicki fakultet, OU=CA_MilanaKnezevic, CN=CA1
        Validity
            Not Before: Apr 14 22:00:21 2022 GMT
            Not After : Apr 14 22:00:21 2023 GMT
        Subject: C=BA, ST=RS, O=Elektrotehnicki fakultet, OU=CA_MilanaKnezevic, CN=Milos
        Subject Public Key Info:
            Public Key Algorithm: rsaEncryption
                Public-Key: (4096 bit)
                Modulus:
                    00:95:85:58:91:00:78:42:3d:e6:51:fd:3d:9d:a2:
                    2c:22:6b:c4:6f:8a:0f:a2:c1:23:10:39:43:e5:10:
                    0e:e8:76:57:62:ed:d4:0c:81:16:dc:c0:6e:86:d5:
                    82:d5:c3:74:a0:41:ef:e1:b6:13:c1:0b:97:7e:27:
                    fd:ce:5f:57:4d:89:b8:70:f6:c0:4e:56:a9:92:d3:
                    82:10:dd:13:0d:1b:a9:aa:b4:3e:dd:13:a9:8f:54:
                    6f:26:23:57:9a:7b:f6:c9:ce:81:6f:07:a7:e7:ad:
                    65:53:ce:70:e6:76:82:ee:20:a5:94:c6:28:3f:1b:
                    4a:4b:11:ab:45:41:8d:d9:f8:42:7e:ca:db:02:6b:
                    a1:d6:ad:27:a5:28:49:70:c2:6f:26:75:08:36:9b:
                    f2:de:15:7f:00:ff:b5:ec:b8:09:3e:cb:d3:ca:df:
                    1f:7d:0b:da:af:30:84:a7:eb:72:e7:70:53:6b:7f:
                    42:4e:21:b7:33:09:8e:78:57:77:1f:c2:3a:a3:b1:
                    fd:cf:5e:36:4c:7d:7b:85:28:36:ee:f7:bf:65:c0:
                    cb:ef:f3:b4:65:34:29:86:9f:4c:89:d0:d7:cc:22:
                    45:fd:11:77:24:72:a9:6c:84:6b:cd:4f:8b:c0:94:
                    11:50:00:af:14:62:a9:e8:a2:60:c7:6a:27:dd:f5:
                    c4:2d:c2:2f:b5:c3:1a:2a:48:90:c2:ce:4a:21:01:
                    cc:af:81:58:5d:8e:c2:7a:15:03:67:50:eb:b9:b0:
                    a7:2e:b0:47:a6:83:c4:3f:b8:25:5c:df:bc:eb:4e:
                    97:b3:6d:aa:d8:a4:f5:24:8c:50:61:6c:7d:48:8a:
                    a4:20:78:5d:c8:0b:20:d6:a1:9f:41:d2:a0:0b:57:
                    d6:92:ed:7e:ee:ad:66:b6:7f:32:03:fa:b7:db:f1:
                    7a:a8:6d:ea:b1:ff:c1:60:9e:49:9c:7a:7c:08:47:
                    da:2f:dd:38:77:91:0b:59:b2:04:ab:2e:85:d6:2e:
                    d3:d3:b7:e6:ae:7e:ef:b6:33:13:9e:18:2f:cd:6f:
                    90:24:c5:76:44:38:c3:3f:ec:11:ff:53:42:a8:55:
                    8a:d7:19:f9:a1:ad:bc:c6:a4:aa:e7:fd:b8:79:8e:
                    1b:fa:aa:98:0d:78:ec:93:1f:c8:bf:21:2b:51:38:
                    cf:44:17:2a:51:70:8c:77:70:54:4c:c0:88:7f:ab:
                    63:70:eb:af:d2:0c:af:40:32:6e:98:74:2d:70:f5:
                    96:d4:ef:01:6e:0d:02:4e:ef:70:70:3b:49:51:94:
                    aa:80:cd:56:c7:ca:fc:a8:a1:c4:13:77:35:74:88:
                    b4:dc:2d:9c:6f:e6:c8:dd:b8:dd:d7:fd:60:c6:a1:
                    2f:47:19
                Exponent: 65537 (0x10001)
        X509v3 extensions:
            X509v3 Basic Constraints: 
                CA:FALSE
            X509v3 Extended Key Usage: 
                TLS Web Client Authentication
            Netscape Comment: 
                OpenSSL Generated Certificate
            X509v3 Subject Key Identifier: 
                C0:FE:35:BC:65:E5:D9:FF:97:EE:B4:25:28:1B:1D:F7:F6:51:98:7B
            X509v3 Authority Key Identifier: 
                E1:D2:3B:37:D4:03:84:E5:D8:BA:BB:42:3E:F6:A3:88:0A:05:25:1A
            X509v3 CRL Distribution Points: 
                Full Name:
                  URI:http://192.168.21.89/rootcrl.pem
    Signature Algorithm: sha1WithRSAEncryption
    Signature Value:
        55:78:fe:59:a1:62:94:2f:54:56:7d:ac:b7:11:98:00:e4:fc:
        50:2d:9d:9a:ea:94:f6:4d:45:13:02:a9:91:32:af:a7:53:c4:
        aa:58:43:38:fc:dc:b6:b0:d0:f5:c6:64:5d:1b:ae:be:06:dd:
        4e:fe:de:3d:bc:c5:be:52:c2:de:dd:aa:e7:e4:a6:93:e2:e6:
        59:8b:62:4f:d6:b3:bf:c3:83:e9:79:d3:65:07:a5:59:7d:99:
        76:6d:e8:de:c2:5e:77:3a:dd:50:6e:f8:61:91:e1:e0:fa:6b:
        1d:a1:9d:0b:ad:c4:3e:94:33:58:a4:79:eb:54:50:39:13:97:
        8f:d4:eb:5c:25:98:43:3c:67:78:68:4c:5d:2a:01:05:f7:c1:
        c6:30:58:88:3e:ba:e5:6e:ee:b4:5a:23:45:e5:c9:be:e0:43:
        e1:c3:67:cc:30:fa:53:cc:22:7f:89:8c:0b:b1:ef:e2:22:b9:
        4b:6c:f3:a9:1c:20:2d:49:00:98:af:fa:c5:2e:ca:8d:04:35:
        4d:f0:fd:70:98:86:7b:a7:be:41:cd:71:a4:2d:59:3d:2a:3d:
        db:ea:75:61:9d:ce:d7:5e:65:df:d5:55:72:3c:e7:e9:42:de:
        8d:00:a6:6d:3a:8d:07:a8:8d:19:9e:6b:8c:0c:37:05:77:b8:
        05:75:bf:16:87:5c:b6:92:c0:57:82:60:b4:ed:ba:7c:e1:f0:
        c3:23:d0:9a:de:06:de:6f:a5:99:06:26:94:b7:88:3e:ea:a6:
        e7:d0:f4:7c:8b:5f:4d:39:16:71:ad:ae:0b:f4:9d:fe:d1:96:
        0c:88:e5:b0:be:6b:64:f0:5d:37:f8:55:53:c4:3a:9f:77:5a:
        30:8c:d6:b7:72:06:46:0b:dc:85:e3:2e:cf:3b:03:bd:63:75:
        60:85:82:db:f4:7e:33:c4:75:95:7e:47:22:e5:96:ea:9c:ea:
        b5:ab:70:6e:59:68:ce:21:06:35:cf:fc:0a:db:6d:f7:08:02:
        91:cd:93:18:fb:78:94:6a:6c:39:6a:1d:69:fb:68:ef:f5:06:
        b5:b5:04:4a:60:a0:2d:fe:df:09:fc:38:d8:a0:da:70:2f:44:
        48:1b:a9:fb:60:1e:6c:59:a5:7f:0f:41:dd:af:59:ab:f4:91:
        c6:dc:cf:91:ed:f3:c0:de:9c:00:71:2a:3c:1f:bd:02:b8:f0:
        27:4e:e5:69:36:8b:7f:4f:ba:fe:af:03:43:3c:32:5e:25:c4:
        51:eb:cc:a0:90:52:03:b6:a9:32:a8:15:51:3a:a6:f7:91:a8:
        7e:58:1d:5e:de:79:22:20:df:c5:a0:f9:76:38:3e:61:71:20:
        7b:ea:5b:c0:c8:47:76:01
-----BEGIN CERTIFICATE-----
MIIGEDCCA/igAwIBAgIBAzANBgkqhkiG9w0BAQUFADBnMQswCQYDVQQGEwJCQTEL
MAkGA1UECBMCUlMxITAfBgNVBAoTGEVsZWt0cm90ZWhuaWNraSBmYWt1bHRldDEa
MBgGA1UECxQRQ0FfTWlsYW5hS25lemV2aWMxDDAKBgNVBAMTA0NBMTAeFw0yMjA0
MTQyMjAwMjFaFw0yMzA0MTQyMjAwMjFaMGkxCzAJBgNVBAYTAkJBMQswCQYDVQQI
EwJSUzEhMB8GA1UEChMYRWxla3Ryb3RlaG5pY2tpIGZha3VsdGV0MRowGAYDVQQL
FBFDQV9NaWxhbmFLbmV6ZXZpYzEOMAwGA1UEAxMFTWlsb3MwggIiMA0GCSqGSIb3
DQEBAQUAA4ICDwAwggIKAoICAQCVhViRAHhCPeZR/T2doiwia8Rvig+iwSMQOUPl
EA7odldi7dQMgRbcwG6G1YLVw3SgQe/hthPBC5d+J/3OX1dNibhw9sBOVqmS04IQ
3RMNG6mqtD7dE6mPVG8mI1eae/bJzoFvB6fnrWVTznDmdoLuIKWUxig/G0pLEatF
QY3Z+EJ+ytsCa6HWrSelKElwwm8mdQg2m/LeFX8A/7XsuAk+y9PK3x99C9qvMISn
63LncFNrf0JOIbczCY54V3cfwjqjsf3PXjZMfXuFKDbu979lwMvv87RlNCmGn0yJ
0NfMIkX9EXckcqlshGvNT4vAlBFQAK8UYqnoomDHaifd9cQtwi+1wxoqSJDCzkoh
AcyvgVhdjsJ6FQNnUOu5sKcusEemg8Q/uCVc37zrTpezbarYpPUkjFBhbH1IiqQg
eF3ICyDWoZ9B0qALV9aS7X7urWa2fzID+rfb8Xqobeqx/8FgnkmcenwIR9ov3Th3
kQtZsgSrLoXWLtPTt+aufu+2MxOeGC/Nb5AkxXZEOMM/7BH/U0KoVYrXGfmhrbzG
pKrn/bh5jhv6qpgNeOyTH8i/IStROM9EFypRcIx3cFRMwIh/q2Nw66/SDK9AMm6Y
dC1w9ZbU7wFuDQJO73BwO0lRlKqAzVbHyvyoocQTdzV0iLTcLZxv5sjduN3X/WDG
oS9HGQIDAQABo4HEMIHBMAkGA1UdEwQCMAAwEwYDVR0lBAwwCgYIKwYBBQUHAwIw
LAYJYIZIAYb4QgENBB8WHU9wZW5TU0wgR2VuZXJhdGVkIENlcnRpZmljYXRlMB0G
A1UdDgQWBBTA/jW8ZeXZ/5futCUoGx339lGYezAfBgNVHSMEGDAWgBTh0js31AOE
5di6u0I+9qOICgUlGjAxBgNVHR8EKjAoMCagJKAihiBodHRwOi8vMTkyLjE2OC4y
MS44OS9yb290Y3JsLnBlbTANBgkqhkiG9w0BAQUFAAOCAgEAVXj+WaFilC9UVn2s
txGYAOT8UC2dmuqU9k1FEwKpkTKvp1PEqlhDOPzctrDQ9cZkXRuuvgbdTv7ePbzF
vlLC3t2q5+Smk+LmWYtiT9azv8OD6XnTZQelWX2Zdm3o3sJedzrdUG74YZHh4Ppr
HaGdC63EPpQzWKR561RQOROXj9TrXCWYQzxneGhMXSoBBffBxjBYiD665W7utFoj
ReXJvuBD4cNnzDD6U8wif4mMC7Hv4iK5S2zzqRwgLUkAmK/6xS7KjQQ1TfD9cJiG
e6e+Qc1xpC1ZPSo92+p1YZ3O115l39VVcjzn6ULejQCmbTqNB6iNGZ5rjAw3BXe4
BXW/FodctpLAV4JgtO26fOHwwyPQmt4G3m+lmQYmlLeIPuqm59D0fItfTTkWca2u
C/Sd/tGWDIjlsL5rZPBdN/hVU8Q6n3daMIzWt3IGRgvcheMuzzsDvWN1YIWC2/R+
M8R1lX5HIuWW6pzqtatwblloziEGNc/8Cttt9wgCkc2TGPt4lGpsOWodafto7/UG
tbUESmCgLf7fCfw42KDacC9ESBup+2AebFmlfw9B3a9Zq/SRxtzPke3zwN6cAHEq
PB+9ArjwJ07laTaLf0+6/q8DQzwyXiXEUevMoJBSA7apMqgVUTqm95GoflgdXt55
IiDfxaD5djg+YXEge+pbwMhHdgE=
-----END CERTIFICATE-----
