Certificate:
    Data:
        Version: 3 (0x2)
        Serial Number: 5 (0x5)
        Signature Algorithm: sha1WithRSAEncryption
        Issuer: C=BA, ST=RS, O=Elektrotehnicki fakultet, OU=CA_MilanaKnezevic, CN=CA1
        Validity
            Not Before: Apr 15 17:26:18 2022 GMT
            Not After : Apr 15 17:26:18 2023 GMT
        Subject: C=BA, ST=RS, O=Elektrotehnicki fakultet, OU=CA_MilanaKnezevic, CN=Pero
        Subject Public Key Info:
            Public Key Algorithm: rsaEncryption
                Public-Key: (4096 bit)
                Modulus:
                    00:9c:0f:ba:a7:d8:5c:8d:3d:a1:7c:bc:9f:57:f4:
                    5e:65:6b:20:1c:65:83:48:cf:af:59:1f:6b:5c:da:
                    a1:79:71:61:e3:8b:a3:06:39:8b:58:c8:51:96:b9:
                    a5:57:87:49:51:5a:23:08:2f:58:4d:0e:b3:d7:dd:
                    0d:5b:43:d9:d5:20:4f:e3:15:ce:0f:b8:73:48:7b:
                    69:ad:8d:de:5c:fb:2d:f2:42:65:4a:6c:69:5e:b9:
                    08:7a:0e:df:49:d6:5f:0e:93:52:ea:84:f7:50:8c:
                    a7:27:80:df:b5:7f:2b:9b:b0:61:ac:06:2b:25:db:
                    11:83:15:17:bd:c6:42:be:02:14:e3:98:c3:47:5e:
                    ad:d9:78:d7:4f:e1:53:2c:b8:89:be:7f:9f:87:0d:
                    06:38:43:90:d1:9d:8c:e0:1b:12:dc:cd:54:88:74:
                    8c:26:28:92:93:e6:31:81:2d:6f:f0:1b:5d:a4:8e:
                    8d:b0:f7:44:51:81:66:4d:2a:49:83:c0:d2:cc:b5:
                    45:b4:2f:88:0a:3b:9e:fe:5a:f7:43:bb:ce:0e:01:
                    ab:8d:6c:4f:5b:7e:67:61:e4:ab:3b:25:8c:47:7b:
                    ba:ba:1b:b7:32:43:1e:d2:d4:11:a0:16:b6:30:cf:
                    cf:21:9c:c5:c0:98:e1:c4:78:93:75:41:d5:64:6e:
                    32:27:5b:34:b7:15:5e:78:85:aa:08:74:64:3c:94:
                    e0:cb:0d:0a:5b:aa:01:8e:3f:bb:b9:b2:84:a7:22:
                    d8:5f:b7:ae:02:04:bd:91:87:80:81:8a:e0:87:01:
                    90:21:b6:c9:7a:77:7a:31:5a:cb:f4:37:ee:cd:eb:
                    e3:4a:a9:4f:12:ab:c2:df:5a:53:5b:a6:75:1e:ec:
                    35:3f:c7:2e:db:63:24:3d:43:45:93:73:a1:3c:be:
                    56:d2:dd:0d:c4:a7:ae:80:ab:40:24:26:20:af:ce:
                    f2:43:0c:bf:70:45:e7:fd:1c:98:56:0f:79:d7:41:
                    1f:24:f0:2c:bb:52:8c:fd:a1:ae:79:9e:ea:3b:ff:
                    ac:7a:e5:04:2a:25:23:d9:e8:dc:19:98:8f:f5:17:
                    bc:c4:91:f6:23:dd:5c:80:e6:ef:ca:ef:ff:2f:0d:
                    29:f1:ce:e4:7f:02:e1:fd:a4:45:56:35:2f:a8:20:
                    10:43:40:c8:f0:b9:6b:19:40:c1:3d:b2:23:87:90:
                    61:86:2a:7b:8a:12:e2:21:06:1d:b1:99:2e:a2:ef:
                    d6:1f:c0:f7:2e:21:13:a2:50:c9:e1:cd:01:b1:3c:
                    39:08:66:da:45:b6:f6:8f:8c:04:bf:a3:2d:02:86:
                    62:0e:3f:a1:8c:56:55:a5:42:3c:68:09:c6:77:41:
                    ca:c2:e5
                Exponent: 65537 (0x10001)
        X509v3 extensions:
            X509v3 Basic Constraints: 
                CA:FALSE
            X509v3 Extended Key Usage: 
                TLS Web Client Authentication
            Netscape Comment: 
                OpenSSL Generated Certificate
            X509v3 Subject Key Identifier: 
                6C:98:F3:8C:F9:AD:E0:90:64:09:7D:A9:E9:41:F9:E9:71:2E:29:A8
            X509v3 Authority Key Identifier: 
                E1:D2:3B:37:D4:03:84:E5:D8:BA:BB:42:3E:F6:A3:88:0A:05:25:1A
            X509v3 CRL Distribution Points: 
                Full Name:
                  URI:http://192.168.21.89/rootcrl.pem
    Signature Algorithm: sha1WithRSAEncryption
    Signature Value:
        6a:4c:13:2c:72:4a:63:f2:1d:e4:5e:f0:9c:a6:c9:c2:27:b6:
        0d:4d:6c:05:e9:b2:65:90:32:4b:57:39:c2:5a:f8:61:29:54:
        a2:c1:cb:94:84:10:26:cd:25:36:39:1c:2f:98:f3:ff:40:bc:
        f9:8c:3a:bb:52:4e:13:c9:a1:cd:dc:53:02:79:b4:9f:45:22:
        93:7e:d4:02:00:22:5d:b7:03:02:7b:3b:a8:97:31:9b:c5:7e:
        1b:e5:19:5c:1d:21:88:05:b9:dc:bd:39:e8:03:0e:8b:ce:ee:
        2d:fd:fc:28:ba:38:97:43:3a:95:53:50:d6:19:f3:7a:40:17:
        10:83:9a:24:09:3a:db:a7:06:80:3a:18:07:e9:90:dd:17:2c:
        95:4f:c3:9e:c4:0c:4d:e1:fa:fd:3a:ce:81:41:32:41:7b:27:
        aa:ca:b8:28:37:ba:fa:35:d5:a9:e8:51:80:2b:14:1d:ab:fc:
        fb:8f:a7:5a:fd:5e:6b:fa:3a:09:f1:c4:5f:e3:d2:a5:73:f5:
        f1:a9:82:91:13:3d:93:ee:03:fc:76:fd:c5:1a:7b:90:eb:da:
        4e:fb:4c:fc:3e:e2:12:3e:4f:21:98:53:8f:93:d4:0d:c7:e7:
        48:5e:67:84:8b:e6:2e:90:9d:45:12:a8:1d:a8:04:d2:1a:0d:
        10:aa:ec:75:50:79:c4:00:e0:8d:64:15:f1:26:3d:d0:34:91:
        30:14:59:23:e5:17:92:84:a3:53:f8:30:72:56:cc:cb:5c:fe:
        e6:ca:04:be:79:64:fd:89:cd:66:70:45:d1:c1:c7:c4:f1:e8:
        db:94:00:02:29:07:4f:53:15:da:74:10:e0:2f:81:63:8e:90:
        bf:69:6d:a4:13:3d:64:be:5a:72:de:3c:21:22:9d:c1:68:a1:
        c1:6e:92:40:a5:c3:35:44:b2:1f:1c:7d:7c:0c:23:99:7f:f9:
        58:5f:26:57:f8:e2:b9:45:a8:12:83:fe:27:83:47:3a:9b:3c:
        cc:93:8d:22:59:91:d3:e5:ef:c5:a7:68:f9:df:66:fa:d3:8b:
        54:7f:ae:32:42:12:e0:8a:66:86:f5:1c:22:5a:ee:a0:85:d2:
        d9:1f:c4:24:cb:32:57:53:23:68:e6:f9:9b:0c:9d:06:62:9e:
        d5:ec:ec:34:b6:60:83:3a:bc:a6:72:e5:ec:67:8c:c8:a9:3d:
        bc:ae:0d:6e:1c:04:ad:9e:35:19:79:e7:be:68:99:92:71:0d:
        c1:1a:97:0d:d0:d6:db:d0:f9:75:8f:f5:dc:b2:b0:91:37:17:
        12:88:04:a5:6f:f3:ab:d7:cb:4c:f3:cf:e3:4e:9f:76:82:dd:
        8e:46:3a:00:8b:59:5a:2e
-----BEGIN CERTIFICATE-----
MIIGDzCCA/egAwIBAgIBBTANBgkqhkiG9w0BAQUFADBnMQswCQYDVQQGEwJCQTEL
MAkGA1UECBMCUlMxITAfBgNVBAoTGEVsZWt0cm90ZWhuaWNraSBmYWt1bHRldDEa
MBgGA1UECxQRQ0FfTWlsYW5hS25lemV2aWMxDDAKBgNVBAMTA0NBMTAeFw0yMjA0
MTUxNzI2MThaFw0yMzA0MTUxNzI2MThaMGgxCzAJBgNVBAYTAkJBMQswCQYDVQQI
EwJSUzEhMB8GA1UEChMYRWxla3Ryb3RlaG5pY2tpIGZha3VsdGV0MRowGAYDVQQL
FBFDQV9NaWxhbmFLbmV6ZXZpYzENMAsGA1UEAxMEUGVybzCCAiIwDQYJKoZIhvcN
AQEBBQADggIPADCCAgoCggIBAJwPuqfYXI09oXy8n1f0XmVrIBxlg0jPr1kfa1za
oXlxYeOLowY5i1jIUZa5pVeHSVFaIwgvWE0Os9fdDVtD2dUgT+MVzg+4c0h7aa2N
3lz7LfJCZUpsaV65CHoO30nWXw6TUuqE91CMpyeA37V/K5uwYawGKyXbEYMVF73G
Qr4CFOOYw0derdl410/hUyy4ib5/n4cNBjhDkNGdjOAbEtzNVIh0jCYokpPmMYEt
b/AbXaSOjbD3RFGBZk0qSYPA0sy1RbQviAo7nv5a90O7zg4Bq41sT1t+Z2Hkqzsl
jEd7urobtzJDHtLUEaAWtjDPzyGcxcCY4cR4k3VB1WRuMidbNLcVXniFqgh0ZDyU
4MsNCluqAY4/u7myhKci2F+3rgIEvZGHgIGK4IcBkCG2yXp3ejFay/Q37s3r40qp
TxKrwt9aU1umdR7sNT/HLttjJD1DRZNzoTy+VtLdDcSnroCrQCQmIK/O8kMMv3BF
5/0cmFYPeddBHyTwLLtSjP2hrnme6jv/rHrlBColI9no3BmYj/UXvMSR9iPdXIDm
78rv/y8NKfHO5H8C4f2kRVY1L6ggEENAyPC5axlAwT2yI4eQYYYqe4oS4iEGHbGZ
LqLv1h/A9y4hE6JQyeHNAbE8OQhm2kW29o+MBL+jLQKGYg4/oYxWVaVCPGgJxndB
ysLlAgMBAAGjgcQwgcEwCQYDVR0TBAIwADATBgNVHSUEDDAKBggrBgEFBQcDAjAs
BglghkgBhvhCAQ0EHxYdT3BlblNTTCBHZW5lcmF0ZWQgQ2VydGlmaWNhdGUwHQYD
VR0OBBYEFGyY84z5reCQZAl9qelB+elxLimoMB8GA1UdIwQYMBaAFOHSOzfUA4Tl
2Lq7Qj72o4gKBSUaMDEGA1UdHwQqMCgwJqAkoCKGIGh0dHA6Ly8xOTIuMTY4LjIx
Ljg5L3Jvb3RjcmwucGVtMA0GCSqGSIb3DQEBBQUAA4ICAQBqTBMsckpj8h3kXvCc
psnCJ7YNTWwF6bJlkDJLVznCWvhhKVSiwcuUhBAmzSU2ORwvmPP/QLz5jDq7Uk4T
yaHN3FMCebSfRSKTftQCACJdtwMCezuolzGbxX4b5RlcHSGIBbncvTnoAw6Lzu4t
/fwoujiXQzqVU1DWGfN6QBcQg5okCTrbpwaAOhgH6ZDdFyyVT8OexAxN4fr9Os6B
QTJBeyeqyrgoN7r6NdWp6FGAKxQdq/z7j6da/V5r+joJ8cRf49Klc/XxqYKREz2T
7gP8dv3FGnuQ69pO+0z8PuISPk8hmFOPk9QNx+dIXmeEi+YukJ1FEqgdqATSGg0Q
qux1UHnEAOCNZBXxJj3QNJEwFFkj5ReShKNT+DByVszLXP7mygS+eWT9ic1mcEXR
wcfE8ejblAACKQdPUxXadBDgL4FjjpC/aW2kEz1kvlpy3jwhIp3BaKHBbpJApcM1
RLIfHH18DCOZf/lYXyZX+OK5RagSg/4ng0c6mzzMk40iWZHT5e/Fp2j532b604tU
f64yQhLgimaG9RwiWu6ghdLZH8QkyzJXUyNo5vmbDJ0GYp7V7Ow0tmCDOrymcuXs
Z4zIqT28rg1uHAStnjUZeee+aJmScQ3BGpcN0Nbb0Pl1j/XcsrCRNxcSiASlb/Or
18tM88/jTp92gt2ORjoAi1laLg==
-----END CERTIFICATE-----
