Certificate:
    Data:
        Version: 3 (0x2)
        Serial Number: 6 (0x6)
        Signature Algorithm: sha1WithRSAEncryption
        Issuer: C=BA, ST=RS, O=Elektrotehnicki fakultet, OU=CA_MilanaKnezevic, CN=CA1
        Validity
            Not Before: Apr 15 17:34:13 2022 GMT
            Not After : Apr 15 17:34:13 2023 GMT
        Subject: C=BA, ST=RS, O=Elektrotehnicki fakultet, OU=CA_MilanaKnezevic, CN=Javorka
        Subject Public Key Info:
            Public Key Algorithm: rsaEncryption
                Public-Key: (4096 bit)
                Modulus:
                    00:c5:ef:76:89:37:46:74:f1:22:69:df:e7:68:08:
                    8f:9b:6a:05:1d:9c:3b:a7:86:50:3e:2f:d5:74:90:
                    b8:4c:a9:c5:ba:6e:d9:05:1c:b2:f2:f4:61:32:39:
                    6f:89:23:5b:93:60:6b:71:8f:46:73:e3:88:ca:3f:
                    31:14:19:60:ad:2a:a9:29:3b:a3:4e:8e:d6:46:9e:
                    eb:48:ae:fe:e5:4c:d1:e6:65:36:6d:ac:fd:3e:56:
                    88:7f:96:19:de:97:f4:ad:a2:79:9d:5b:76:56:10:
                    80:7c:9b:e2:ac:cc:f3:93:af:6d:30:02:62:92:37:
                    1f:55:b9:ef:c4:cd:39:29:35:2e:8d:4c:1b:32:08:
                    49:ac:be:dd:fd:3c:b3:cc:00:ab:2b:97:a8:64:82:
                    12:f6:7b:4f:c8:79:fb:4a:21:a5:ee:b1:f2:f6:d5:
                    eb:92:5d:46:c7:c5:ed:83:a5:40:a8:48:32:3a:86:
                    e2:63:07:e7:87:ed:26:9a:68:cd:bc:cd:cd:f4:5e:
                    4f:9a:48:0a:b7:bd:ab:33:83:eb:43:59:02:85:7a:
                    62:a8:64:6a:dd:49:8f:5b:8d:a9:34:18:75:00:89:
                    4e:a7:c2:e6:f5:51:64:d5:b6:4b:85:8d:81:19:0b:
                    a6:f1:35:52:45:36:69:42:10:35:16:09:9f:2e:ff:
                    65:33:83:5f:e5:67:1d:c1:e5:94:10:84:94:e5:90:
                    23:84:84:77:64:37:6a:66:31:4f:46:4f:60:6b:f2:
                    d6:f1:f1:5c:cf:ad:a0:65:41:52:40:0d:20:2e:54:
                    6d:ed:70:ba:b0:bb:19:55:61:eb:8d:2e:30:3e:09:
                    4c:95:d3:f9:42:6a:3c:09:19:aa:b0:89:9f:17:14:
                    70:43:e2:28:4a:8e:cf:3b:74:32:0e:15:bc:a8:a7:
                    38:e4:4f:eb:5b:ad:e2:0a:3a:38:d3:04:d7:62:c3:
                    d0:c1:9a:42:ba:4b:7c:ac:4d:77:5e:d9:77:20:2f:
                    3a:2a:2a:68:9d:76:69:ce:3c:a5:da:81:8c:f5:df:
                    da:4a:d8:a4:3f:11:20:4a:f2:f5:cb:84:8a:c5:22:
                    33:90:68:a9:ce:8f:58:a1:3d:c0:8a:8c:98:17:b4:
                    9a:d5:66:63:e9:e6:e2:b5:04:c1:03:97:09:af:fb:
                    91:29:ea:f0:40:49:03:76:6a:2f:94:b8:20:f8:e3:
                    43:e9:65:4b:16:bd:07:93:d3:96:22:78:15:d2:ad:
                    cc:71:25:4e:f3:0a:fc:f3:f3:48:73:94:d5:b9:f6:
                    37:f2:25:ab:5b:8e:a2:bd:88:72:46:08:e3:86:60:
                    b2:e8:e9:ad:4e:97:df:0f:10:c7:9d:4e:09:6f:b6:
                    54:45:ed
                Exponent: 65537 (0x10001)
        X509v3 extensions:
            X509v3 Basic Constraints: 
                CA:FALSE
            X509v3 Extended Key Usage: 
                TLS Web Client Authentication
            Netscape Comment: 
                OpenSSL Generated Certificate
            X509v3 Subject Key Identifier: 
                08:CC:51:07:1D:57:DC:BC:CF:A6:EB:3B:3C:DB:58:CB:4D:54:36:EE
            X509v3 Authority Key Identifier: 
                E1:D2:3B:37:D4:03:84:E5:D8:BA:BB:42:3E:F6:A3:88:0A:05:25:1A
            X509v3 CRL Distribution Points: 
                Full Name:
                  URI:http://192.168.21.89/rootcrl.pem
    Signature Algorithm: sha1WithRSAEncryption
    Signature Value:
        56:dc:23:86:22:8d:08:33:fc:e0:a6:68:ec:a8:29:2c:73:aa:
        2d:e9:7c:4d:64:b8:96:8e:61:f6:a9:1d:cc:f4:8f:e2:94:9a:
        69:1f:cb:44:3b:88:18:9a:95:84:8f:c0:40:28:12:45:15:70:
        23:3d:74:1b:b2:9c:16:01:28:f5:ed:57:b6:f7:42:3a:e6:05:
        24:85:d9:73:ee:25:87:b7:d5:18:48:d2:f6:f4:7a:16:bd:18:
        c2:e1:f0:0f:3f:fb:c3:fa:15:3d:d8:50:06:03:ca:52:04:42:
        87:78:a0:f7:67:63:89:1a:51:26:b7:20:43:05:b5:17:e6:63:
        14:13:6a:60:fc:46:ab:02:93:86:86:5c:07:cf:8a:0d:da:fe:
        4f:0c:94:28:41:16:ad:f7:cb:52:98:73:9f:32:82:5f:5e:97:
        cf:55:af:d4:ed:31:97:3d:1a:33:20:01:e1:c0:d6:b4:18:e8:
        36:8a:83:02:43:60:b6:e4:0c:1a:1a:cb:70:0e:86:8e:50:4b:
        37:0f:84:ea:ae:f5:ea:e9:ad:54:f6:ad:83:52:21:bd:d1:7d:
        35:4d:db:73:f5:3e:68:24:10:c1:40:9f:42:fb:7b:ac:93:8e:
        37:8c:72:a0:7a:fe:0f:93:1a:27:d0:60:eb:4a:f4:cf:6c:8a:
        e0:4f:68:26:a9:d3:b4:c8:80:a3:93:c3:82:94:25:0e:55:8a:
        10:98:2a:58:3b:33:9c:c4:59:6e:6d:c1:c8:36:4b:91:ec:a5:
        27:82:1c:c2:de:80:e9:dd:04:ef:99:89:03:1e:be:2d:20:e2:
        41:47:ba:90:06:05:7b:2b:23:68:d8:ec:06:12:23:2c:24:9c:
        d7:e7:24:0c:2c:1a:b5:f7:09:e8:6e:b2:97:9c:9f:41:95:82:
        5b:41:10:b3:e4:19:0c:8d:f5:14:c2:1a:fd:1b:41:e7:3c:90:
        c3:09:66:73:45:6b:30:50:f0:98:9b:3a:c0:28:c8:ee:ec:16:
        e3:c2:3c:52:5e:80:9d:b3:37:62:59:73:a5:05:9e:39:e9:aa:
        96:73:af:77:d1:1a:1c:88:92:6d:b5:dd:c0:2b:0b:9f:80:d2:
        37:84:d2:10:ff:67:35:0d:db:d6:f9:5b:6f:df:92:4b:54:e4:
        38:87:d0:bb:50:4b:1f:0e:57:0d:58:bf:b1:02:44:af:c5:87:
        84:73:3b:f8:34:b4:a8:80:95:24:52:44:02:2b:5c:2f:60:3b:
        77:60:10:b5:fa:0c:e9:34:5f:44:88:92:a1:36:ff:93:54:b1:
        d6:c6:e7:90:51:27:e6:32:35:14:63:3d:aa:af:a5:11:fd:16:
        23:86:97:32:48:ae:71:25
-----BEGIN CERTIFICATE-----
MIIGEjCCA/qgAwIBAgIBBjANBgkqhkiG9w0BAQUFADBnMQswCQYDVQQGEwJCQTEL
MAkGA1UECBMCUlMxITAfBgNVBAoTGEVsZWt0cm90ZWhuaWNraSBmYWt1bHRldDEa
MBgGA1UECxQRQ0FfTWlsYW5hS25lemV2aWMxDDAKBgNVBAMTA0NBMTAeFw0yMjA0
MTUxNzM0MTNaFw0yMzA0MTUxNzM0MTNaMGsxCzAJBgNVBAYTAkJBMQswCQYDVQQI
EwJSUzEhMB8GA1UEChMYRWxla3Ryb3RlaG5pY2tpIGZha3VsdGV0MRowGAYDVQQL
FBFDQV9NaWxhbmFLbmV6ZXZpYzEQMA4GA1UEAxMHSmF2b3JrYTCCAiIwDQYJKoZI
hvcNAQEBBQADggIPADCCAgoCggIBAMXvdok3RnTxImnf52gIj5tqBR2cO6eGUD4v
1XSQuEypxbpu2QUcsvL0YTI5b4kjW5Nga3GPRnPjiMo/MRQZYK0qqSk7o06O1kae
60iu/uVM0eZlNm2s/T5WiH+WGd6X9K2ieZ1bdlYQgHyb4qzM85OvbTACYpI3H1W5
78TNOSk1Lo1MGzIISay+3f08s8wAqyuXqGSCEvZ7T8h5+0ohpe6x8vbV65JdRsfF
7YOlQKhIMjqG4mMH54ftJppozbzNzfReT5pICre9qzOD60NZAoV6Yqhkat1Jj1uN
qTQYdQCJTqfC5vVRZNW2S4WNgRkLpvE1UkU2aUIQNRYJny7/ZTODX+VnHcHllBCE
lOWQI4SEd2Q3amYxT0ZPYGvy1vHxXM+toGVBUkANIC5Ube1wurC7GVVh640uMD4J
TJXT+UJqPAkZqrCJnxcUcEPiKEqOzzt0Mg4VvKinOORP61ut4go6ONME12LD0MGa
QrpLfKxNd17ZdyAvOioqaJ12ac48pdqBjPXf2krYpD8RIEry9cuEisUiM5Boqc6P
WKE9wIqMmBe0mtVmY+nm4rUEwQOXCa/7kSnq8EBJA3ZqL5S4IPjjQ+llSxa9B5PT
liJ4FdKtzHElTvMK/PPzSHOU1bn2N/Ilq1uOor2IckYI44ZgsujprU6X3w8Qx51O
CW+2VEXtAgMBAAGjgcQwgcEwCQYDVR0TBAIwADATBgNVHSUEDDAKBggrBgEFBQcD
AjAsBglghkgBhvhCAQ0EHxYdT3BlblNTTCBHZW5lcmF0ZWQgQ2VydGlmaWNhdGUw
HQYDVR0OBBYEFAjMUQcdV9y8z6brOzzbWMtNVDbuMB8GA1UdIwQYMBaAFOHSOzfU
A4Tl2Lq7Qj72o4gKBSUaMDEGA1UdHwQqMCgwJqAkoCKGIGh0dHA6Ly8xOTIuMTY4
LjIxLjg5L3Jvb3RjcmwucGVtMA0GCSqGSIb3DQEBBQUAA4ICAQBW3COGIo0IM/zg
pmjsqCksc6ot6XxNZLiWjmH2qR3M9I/ilJppH8tEO4gYmpWEj8BAKBJFFXAjPXQb
spwWASj17Ve290I65gUkhdlz7iWHt9UYSNL29HoWvRjC4fAPP/vD+hU92FAGA8pS
BEKHeKD3Z2OJGlEmtyBDBbUX5mMUE2pg/EarApOGhlwHz4oN2v5PDJQoQRat98tS
mHOfMoJfXpfPVa/U7TGXPRozIAHhwNa0GOg2ioMCQ2C25AwaGstwDoaOUEs3D4Tq
rvXq6a1U9q2DUiG90X01Tdtz9T5oJBDBQJ9C+3usk443jHKgev4Pkxon0GDrSvTP
bIrgT2gmqdO0yICjk8OClCUOVYoQmCpYOzOcxFlubcHINkuR7KUnghzC3oDp3QTv
mYkDHr4tIOJBR7qQBgV7KyNo2OwGEiMsJJzX5yQMLBq19wnobrKXnJ9BlYJbQRCz
5BkMjfUUwhr9G0HnPJDDCWZzRWswUPCYmzrAKMju7BbjwjxSXoCdszdiWXOlBZ45
6aqWc6930RociJJttd3AKwufgNI3hNIQ/2c1DdvW+Vtv35JLVOQ4h9C7UEsfDlcN
WL+xAkSvxYeEczv4NLSogJUkUkQCK1wvYDt3YBC1+gzpNF9EiJKhNv+TVLHWxueQ
USfmMjUUYz2qr6UR/RYjhpcySK5xJQ==
-----END CERTIFICATE-----
