Certificate:
    Data:
        Version: 3 (0x2)
        Serial Number: 7 (0x7)
        Signature Algorithm: sha1WithRSAEncryption
        Issuer: C=BA, ST=RS, O=Elektrotehnicki fakultet, OU=CA_MilanaKnezevic, CN=CA1
        Validity
            Not Before: Apr 15 18:39:35 2022 GMT
            Not After : Apr 15 18:39:35 2023 GMT
        Subject: C=BA, ST=RS, O=Elektrotehnicki fakultet, OU=CA_MilanaKnezevic, CN=Drago
        Subject Public Key Info:
            Public Key Algorithm: rsaEncryption
                Public-Key: (4096 bit)
                Modulus:
                    00:ad:37:e0:1d:3d:ab:c9:79:65:25:1a:c8:f0:27:
                    d2:d6:e3:c8:8e:9c:5d:96:5b:25:ca:84:80:74:b2:
                    58:92:97:a2:b2:26:d3:5e:a2:70:cd:8f:87:2c:0d:
                    7a:19:67:56:17:9f:ba:9b:31:60:f4:16:b9:b8:d4:
                    9e:b7:b3:09:15:b3:0e:bc:73:83:aa:a7:52:92:3d:
                    01:d8:20:0a:fa:bd:0b:ac:9a:c9:eb:af:9d:62:6a:
                    67:e4:c3:93:39:f8:7c:ba:d5:3a:ef:b6:af:ec:5d:
                    b2:27:e4:18:1f:8e:23:10:71:1b:07:cb:09:87:f9:
                    a7:e2:7c:41:bf:cc:fb:f8:ee:31:41:5b:36:90:14:
                    43:4d:c1:df:41:54:18:f4:ed:61:74:50:8e:c4:d8:
                    5a:c3:cf:42:b2:78:d9:5b:d7:ca:f7:66:40:9c:02:
                    d4:eb:36:94:83:16:00:5f:d9:ef:93:4a:04:be:d1:
                    92:8a:2a:33:ca:00:6e:2b:88:ae:ba:b6:42:fc:93:
                    28:e2:5e:c2:55:a5:51:95:fe:d6:17:fc:35:de:d2:
                    40:e9:19:ca:54:ac:c3:4e:86:a2:a0:53:a5:61:4e:
                    8a:b1:3b:1f:59:75:1b:24:cd:cc:25:cc:d0:8f:c5:
                    cb:dd:d1:6f:3f:1e:7c:fb:4c:d3:d8:7d:55:58:57:
                    29:77:d4:d5:7e:16:39:a1:24:75:ff:70:65:56:94:
                    a5:13:af:1a:27:9e:de:5e:39:3a:76:85:3d:80:c8:
                    05:b2:50:6d:88:46:e3:10:9c:59:08:c0:f1:8f:15:
                    2e:ad:20:90:cc:88:80:f5:76:41:e4:ab:f3:f8:c6:
                    9b:bd:e8:f0:e4:40:ac:14:db:41:3b:a3:57:f0:14:
                    d1:ba:15:c1:b7:09:42:87:93:04:cf:cf:45:45:87:
                    aa:19:89:09:b3:66:4d:29:60:a8:e4:3d:54:51:45:
                    14:bf:b0:58:0f:37:51:f3:3d:68:2c:1c:b1:3a:b9:
                    a5:2d:ef:c5:36:68:9a:95:c1:a7:d9:21:76:fa:d2:
                    ad:7d:49:53:6c:62:59:74:a1:49:93:07:42:e8:1d:
                    c9:d5:fc:5c:9f:02:9c:9a:aa:8e:19:98:92:d1:0e:
                    64:d7:44:b4:86:c2:32:8b:a1:ea:5f:9b:bf:4b:93:
                    32:84:d6:b0:8e:ce:63:ce:51:93:2b:31:7f:f9:ad:
                    fa:01:b3:64:6d:23:36:53:d3:47:6b:5d:db:b8:74:
                    9d:a3:31:b5:d4:e5:6f:b1:25:61:21:bd:54:f8:cc:
                    ba:5c:4c:75:2f:71:cb:09:eb:e8:43:bd:21:97:b0:
                    6c:14:7d:b1:fd:50:f8:08:62:0a:b0:34:a9:f8:32:
                    2a:2a:2d
                Exponent: 65537 (0x10001)
        X509v3 extensions:
            X509v3 Basic Constraints: 
                CA:FALSE
            X509v3 Extended Key Usage: 
                TLS Web Client Authentication
            Netscape Comment: 
                OpenSSL Generated Certificate
            X509v3 Subject Key Identifier: 
                30:D6:2F:F2:7E:F0:4E:0B:30:21:D5:3F:90:3B:9F:7E:76:8E:EE:AE
            X509v3 Authority Key Identifier: 
                E1:D2:3B:37:D4:03:84:E5:D8:BA:BB:42:3E:F6:A3:88:0A:05:25:1A
            X509v3 CRL Distribution Points: 
                Full Name:
                  URI:http://192.168.21.89/rootcrl.pem
    Signature Algorithm: sha1WithRSAEncryption
    Signature Value:
        34:8b:2b:15:c0:44:f3:45:c9:69:29:0f:c8:12:18:11:02:43:
        e9:b8:29:02:2c:86:cd:80:9c:9f:60:18:4e:fe:d1:c8:95:5a:
        9c:6a:0d:63:29:0d:1b:42:97:20:92:58:7e:79:c0:77:ab:66:
        37:23:01:56:ce:f8:07:e4:ad:49:65:52:b0:91:ee:c1:84:e1:
        ed:d2:5c:a7:02:f4:7c:b1:f8:8f:9c:ca:91:eb:a6:03:67:04:
        4a:ec:5f:4f:a6:b3:d9:2f:a5:b1:5c:de:3c:4c:9c:b6:0f:bd:
        07:32:78:a5:b0:95:35:85:e9:f0:52:d1:50:d7:07:50:d9:70:
        ef:39:67:13:ca:c8:3b:82:bd:2c:03:8c:c9:12:0a:c1:b7:97:
        91:5a:18:4d:69:69:21:ea:e9:a4:e0:de:ee:0b:ab:0f:31:de:
        51:de:4a:0b:0e:28:43:a4:85:f4:f5:30:6a:2c:e8:f5:99:1d:
        6c:c8:71:c1:d0:c9:2a:e9:19:c8:eb:87:79:00:1b:9b:e9:b8:
        cd:c0:95:7d:8c:2a:74:04:3d:44:9d:63:81:c5:c1:07:1c:35:
        c0:af:fe:56:82:e6:77:f4:7b:e0:6d:d2:5f:8a:97:a2:59:83:
        b5:03:e5:c8:ab:88:3c:45:49:f7:26:da:a1:ac:cf:d1:f5:dc:
        e0:f3:ae:a3:8d:4f:79:3c:4b:55:b6:df:45:80:13:32:0c:e6:
        0f:bd:63:cb:b3:dc:e0:64:51:26:90:a5:12:bb:25:9d:14:09:
        cf:4f:78:99:f2:29:af:6f:76:39:d3:11:69:77:81:94:bb:44:
        5a:8b:60:dc:f6:67:3c:5d:83:ed:ea:88:4b:16:c7:de:85:03:
        e2:be:4e:be:a0:47:6a:db:80:b8:78:21:a2:d1:b2:81:26:0e:
        38:f4:34:d4:c3:96:ba:69:aa:42:99:e9:cf:94:5d:cf:d4:b1:
        e1:81:40:ca:44:f5:75:e2:f3:a9:9b:f7:40:44:22:77:69:37:
        3a:f9:c6:e2:d0:45:5d:1a:b3:4b:d4:58:72:12:45:71:e7:9d:
        77:8a:18:39:bd:96:87:d6:99:1a:19:b9:01:89:66:eb:22:94:
        f5:54:86:81:23:67:2c:c3:f8:47:95:53:bf:2d:1a:25:1d:84:
        f9:90:85:61:31:48:5d:cf:72:a0:4b:64:b7:c4:03:8c:a3:c5:
        14:e4:63:6b:41:49:e2:0a:7d:76:c5:5d:a2:75:e9:48:90:7c:
        67:53:2d:c7:61:4c:b0:e7:42:ff:58:99:87:ca:4d:fa:ef:a6:
        ce:68:92:25:cf:6a:b8:f1:d8:4f:0b:0b:82:fa:fa:d7:8a:50:
        f1:49:e4:87:7b:b2:01:04
-----BEGIN CERTIFICATE-----
MIIGEDCCA/igAwIBAgIBBzANBgkqhkiG9w0BAQUFADBnMQswCQYDVQQGEwJCQTEL
MAkGA1UECBMCUlMxITAfBgNVBAoTGEVsZWt0cm90ZWhuaWNraSBmYWt1bHRldDEa
MBgGA1UECxQRQ0FfTWlsYW5hS25lemV2aWMxDDAKBgNVBAMTA0NBMTAeFw0yMjA0
MTUxODM5MzVaFw0yMzA0MTUxODM5MzVaMGkxCzAJBgNVBAYTAkJBMQswCQYDVQQI
EwJSUzEhMB8GA1UEChMYRWxla3Ryb3RlaG5pY2tpIGZha3VsdGV0MRowGAYDVQQL
FBFDQV9NaWxhbmFLbmV6ZXZpYzEOMAwGA1UEAxMFRHJhZ28wggIiMA0GCSqGSIb3
DQEBAQUAA4ICDwAwggIKAoICAQCtN+AdPavJeWUlGsjwJ9LW48iOnF2WWyXKhIB0
sliSl6KyJtNeonDNj4csDXoZZ1YXn7qbMWD0Frm41J63swkVsw68c4Oqp1KSPQHY
IAr6vQusmsnrr51iamfkw5M5+Hy61Trvtq/sXbIn5BgfjiMQcRsHywmH+afifEG/
zPv47jFBWzaQFENNwd9BVBj07WF0UI7E2FrDz0KyeNlb18r3ZkCcAtTrNpSDFgBf
2e+TSgS+0ZKKKjPKAG4riK66tkL8kyjiXsJVpVGV/tYX/DXe0kDpGcpUrMNOhqKg
U6VhToqxOx9ZdRskzcwlzNCPxcvd0W8/Hnz7TNPYfVVYVyl31NV+FjmhJHX/cGVW
lKUTrxonnt5eOTp2hT2AyAWyUG2IRuMQnFkIwPGPFS6tIJDMiID1dkHkq/P4xpu9
6PDkQKwU20E7o1fwFNG6FcG3CUKHkwTPz0VFh6oZiQmzZk0pYKjkPVRRRRS/sFgP
N1HzPWgsHLE6uaUt78U2aJqVwafZIXb60q19SVNsYll0oUmTB0LoHcnV/FyfApya
qo4ZmJLRDmTXRLSGwjKLoepfm79LkzKE1rCOzmPOUZMrMX/5rfoBs2RtIzZT00dr
Xdu4dJ2jMbXU5W+xJWEhvVT4zLpcTHUvccsJ6+hDvSGXsGwUfbH9UPgIYgqwNKn4
MioqLQIDAQABo4HEMIHBMAkGA1UdEwQCMAAwEwYDVR0lBAwwCgYIKwYBBQUHAwIw
LAYJYIZIAYb4QgENBB8WHU9wZW5TU0wgR2VuZXJhdGVkIENlcnRpZmljYXRlMB0G
A1UdDgQWBBQw1i/yfvBOCzAh1T+QO59+do7urjAfBgNVHSMEGDAWgBTh0js31AOE
5di6u0I+9qOICgUlGjAxBgNVHR8EKjAoMCagJKAihiBodHRwOi8vMTkyLjE2OC4y
MS44OS9yb290Y3JsLnBlbTANBgkqhkiG9w0BAQUFAAOCAgEANIsrFcBE80XJaSkP
yBIYEQJD6bgpAiyGzYCcn2AYTv7RyJVanGoNYykNG0KXIJJYfnnAd6tmNyMBVs74
B+StSWVSsJHuwYTh7dJcpwL0fLH4j5zKkeumA2cESuxfT6az2S+lsVzePEyctg+9
BzJ4pbCVNYXp8FLRUNcHUNlw7zlnE8rIO4K9LAOMyRIKwbeXkVoYTWlpIerppODe
7gurDzHeUd5KCw4oQ6SF9PUwaizo9ZkdbMhxwdDJKukZyOuHeQAbm+m4zcCVfYwq
dAQ9RJ1jgcXBBxw1wK/+VoLmd/R74G3SX4qXolmDtQPlyKuIPEVJ9ybaoazP0fXc
4POuo41PeTxLVbbfRYATMgzmD71jy7Pc4GRRJpClErslnRQJz094mfIpr292OdMR
aXeBlLtEWotg3PZnPF2D7eqISxbH3oUD4r5OvqBHatuAuHghotGygSYOOPQ01MOW
ummqQpnpz5Rdz9Sx4YFAykT1deLzqZv3QEQid2k3OvnG4tBFXRqzS9RYchJFceed
d4oYOb2Wh9aZGhm5AYlm6yKU9VSGgSNnLMP4R5VTvy0aJR2E+ZCFYTFIXc9yoEtk
t8QDjKPFFORja0FJ4gp9dsVdonXpSJB8Z1Mtx2FMsOdC/1iZh8pN+u+mzmiSJc9q
uPHYTwsLgvr614pQ8Unkh3uyAQQ=
-----END CERTIFICATE-----
