Certificate:
    Data:
        Version: 3 (0x2)
        Serial Number: 8 (0x8)
        Signature Algorithm: sha1WithRSAEncryption
        Issuer: C=BA, ST=RS, O=Elektrotehnicki fakultet, OU=CA_MilanaKnezevic, CN=CA1
        Validity
            Not Before: Apr 16 09:49:17 2022 GMT
            Not After : Apr 16 09:49:17 2023 GMT
        Subject: C=BA, ST=RS, O=Elektrotehnicki fakultet, OU=CA_MilanaKnezevic, CN=Gorana
        Subject Public Key Info:
            Public Key Algorithm: rsaEncryption
                Public-Key: (4096 bit)
                Modulus:
                    00:a7:44:2e:4b:32:d3:eb:40:0d:e4:4e:f5:a3:f3:
                    29:5b:67:c1:61:a5:e9:2b:f2:b1:1b:5c:05:4f:95:
                    82:14:cb:84:a5:32:2c:6a:09:ac:0b:91:77:7c:eb:
                    69:ca:d8:d0:3d:73:12:c2:9e:27:26:02:33:1e:3b:
                    18:64:82:23:16:4d:51:d7:94:0d:ce:bf:a8:84:2b:
                    9b:4d:af:75:ea:ad:71:76:b8:a2:d8:de:09:91:92:
                    f0:df:6f:d2:0c:84:61:71:59:97:d0:d9:44:e9:1b:
                    1f:08:e7:71:29:02:99:07:92:21:0b:ef:68:46:98:
                    05:b2:85:75:05:72:4a:53:6c:ab:a1:ab:d2:ba:60:
                    99:6c:b4:08:e4:ef:3f:61:df:2a:9f:84:db:1b:d2:
                    63:40:9e:44:48:70:b0:22:6a:78:87:f6:1a:13:9e:
                    36:e1:e7:5f:45:52:b9:ed:45:04:c0:25:5f:5b:c1:
                    84:0a:26:a5:4f:2c:2e:ce:d2:0b:c9:ea:b5:d4:03:
                    60:96:2b:a9:3a:24:bc:71:04:83:77:cb:5e:01:99:
                    c8:a3:40:f4:11:fc:a7:56:35:ae:8e:49:ff:ae:d6:
                    98:24:21:ad:fb:f1:a7:b5:f5:f2:58:61:c3:66:0e:
                    f7:3b:12:7a:a5:00:5d:6f:14:fc:98:19:47:7e:e9:
                    7a:40:24:87:40:47:16:b3:d2:76:79:70:55:c9:9e:
                    21:25:ae:0d:b4:4f:bd:d8:53:6a:39:27:d1:f7:bb:
                    c0:0e:18:20:55:65:cb:8a:e2:48:ac:3e:1b:0e:ea:
                    4b:01:30:f8:bf:22:f9:0d:a1:c0:6e:de:2c:15:43:
                    3c:eb:9b:5a:9c:45:e4:65:d2:ff:4a:22:7d:91:61:
                    c6:d9:e3:2d:54:6f:89:12:52:78:b3:7d:5a:2e:82:
                    32:38:df:95:5d:92:89:08:82:5e:f9:90:29:4b:0a:
                    08:3e:6a:b0:3e:62:22:73:b8:cd:93:27:19:8f:d6:
                    41:bb:7b:69:82:73:6e:f1:16:12:a7:86:2d:fc:d0:
                    ae:0f:ff:0b:d0:e3:ad:1d:2d:65:3c:0f:9a:4c:e6:
                    dd:70:7e:82:d3:40:72:61:f3:b5:4a:05:25:74:af:
                    42:66:05:64:8c:a2:6e:a3:12:d5:48:90:09:d0:aa:
                    bf:54:d6:5b:cd:39:60:22:e2:3d:17:b7:b2:36:73:
                    71:11:24:09:e4:3d:fe:70:0d:d6:30:29:72:be:0c:
                    af:5e:86:d5:91:6f:a2:c6:8e:97:a1:ba:72:3b:96:
                    79:e9:da:9f:8a:9e:8e:3e:72:81:af:01:5a:55:2c:
                    9d:e4:71:44:f7:30:8a:d8:4f:73:b1:50:31:fb:83:
                    d3:af:05
                Exponent: 65537 (0x10001)
        X509v3 extensions:
            X509v3 Basic Constraints: 
                CA:FALSE
            X509v3 Extended Key Usage: 
                TLS Web Client Authentication
            Netscape Comment: 
                OpenSSL Generated Certificate
            X509v3 Subject Key Identifier: 
                EF:B8:4E:6B:39:81:B9:4E:97:B2:17:98:ED:6A:12:F1:A6:D9:9B:FB
            X509v3 Authority Key Identifier: 
                E1:D2:3B:37:D4:03:84:E5:D8:BA:BB:42:3E:F6:A3:88:0A:05:25:1A
            X509v3 CRL Distribution Points: 
                Full Name:
                  URI:http://192.168.21.89/rootcrl.pem
    Signature Algorithm: sha1WithRSAEncryption
    Signature Value:
        24:40:68:78:8c:c0:bf:fc:ab:e5:01:8c:e5:2b:5e:2a:56:b0:
        76:7f:c7:3a:b7:a2:5d:b1:07:c7:09:4f:29:94:8c:31:96:03:
        50:7a:e8:74:84:6b:ac:6e:58:b7:32:93:de:8e:41:23:f1:17:
        28:4f:c8:7a:88:4f:2f:db:b5:06:40:ed:49:00:60:37:e2:38:
        90:aa:e0:b8:70:b5:fc:2f:a6:6b:b8:d9:13:7d:8b:68:d3:dc:
        09:14:f3:e7:75:ac:25:ae:07:f7:5d:26:86:ee:ff:5b:0b:82:
        e5:9b:64:59:36:4a:4e:80:74:27:7f:59:cd:6e:45:dd:de:a9:
        59:ba:c6:b9:91:96:da:f7:b0:04:11:4f:ad:d4:12:0d:94:2f:
        70:3f:df:b2:ea:7f:04:cf:96:b5:5e:ed:97:f5:f5:67:cc:54:
        da:b5:48:08:19:6e:4d:bf:15:c3:62:ba:b2:98:31:cf:a6:4d:
        93:98:13:bc:24:8f:03:7b:2f:56:98:ec:dd:09:20:6f:ed:2e:
        31:d7:54:14:48:af:b3:97:28:3b:fd:57:42:8b:1a:8e:95:17:
        33:62:ce:1c:b8:0c:3d:85:c6:db:57:df:05:6a:48:ab:ec:3e:
        ae:52:25:7f:fd:a7:32:45:7c:4d:f6:4f:5b:02:cf:5d:9f:7d:
        38:a5:70:c2:41:39:db:d5:a2:0f:1d:3a:d4:53:d5:f1:cd:51:
        09:a3:bd:cc:f1:3b:90:77:bd:12:20:42:9b:77:03:4b:09:90:
        eb:06:6a:f7:8e:00:8c:77:8d:d9:65:bd:d7:fc:a8:f0:9b:08:
        a9:88:53:9e:05:dc:1b:b7:48:e9:7e:ba:7a:15:2c:c3:ec:13:
        28:e8:98:d6:a3:03:6b:b8:b1:58:bc:66:f4:8d:9e:c7:49:ab:
        87:f7:1c:c5:9d:85:a9:3d:82:f7:3b:7d:ff:7a:43:46:f5:6f:
        34:de:f3:b4:43:b1:3b:3d:55:e8:61:63:02:73:b5:87:b6:d3:
        a9:a5:bc:74:ba:6c:70:ad:97:a7:82:ba:d5:49:3b:16:e9:e2:
        c5:d6:e2:85:72:b7:74:a5:26:1d:17:90:95:11:e1:f3:1c:89:
        f5:74:64:8b:61:8e:8e:d9:a5:16:2c:bc:ba:9c:fd:4f:71:33:
        ae:41:bd:4f:a1:d6:31:37:76:16:26:d5:c1:c4:df:73:9b:59:
        3c:1b:bf:88:0a:ad:e7:85:7c:c4:26:1a:a7:ba:d5:f9:03:6a:
        3e:b9:9a:44:aa:6d:a8:4d:62:4f:20:00:b0:50:66:02:0d:87:
        74:aa:9e:dc:d5:03:7d:6e:d7:af:9c:cb:fe:25:65:b9:a4:4f:
        bb:3e:55:6f:2b:62:cf:de
-----BEGIN CERTIFICATE-----
MIIGETCCA/mgAwIBAgIBCDANBgkqhkiG9w0BAQUFADBnMQswCQYDVQQGEwJCQTEL
MAkGA1UECBMCUlMxITAfBgNVBAoTGEVsZWt0cm90ZWhuaWNraSBmYWt1bHRldDEa
MBgGA1UECxQRQ0FfTWlsYW5hS25lemV2aWMxDDAKBgNVBAMTA0NBMTAeFw0yMjA0
MTYwOTQ5MTdaFw0yMzA0MTYwOTQ5MTdaMGoxCzAJBgNVBAYTAkJBMQswCQYDVQQI
EwJSUzEhMB8GA1UEChMYRWxla3Ryb3RlaG5pY2tpIGZha3VsdGV0MRowGAYDVQQL
FBFDQV9NaWxhbmFLbmV6ZXZpYzEPMA0GA1UEAxMGR29yYW5hMIICIjANBgkqhkiG
9w0BAQEFAAOCAg8AMIICCgKCAgEAp0QuSzLT60AN5E71o/MpW2fBYaXpK/KxG1wF
T5WCFMuEpTIsagmsC5F3fOtpytjQPXMSwp4nJgIzHjsYZIIjFk1R15QNzr+ohCub
Ta916q1xdrii2N4JkZLw32/SDIRhcVmX0NlE6RsfCOdxKQKZB5IhC+9oRpgFsoV1
BXJKU2yroavSumCZbLQI5O8/Yd8qn4TbG9JjQJ5ESHCwImp4h/YaE5424edfRVK5
7UUEwCVfW8GECialTywuztILyeq11ANgliupOiS8cQSDd8teAZnIo0D0EfynVjWu
jkn/rtaYJCGt+/GntfXyWGHDZg73OxJ6pQBdbxT8mBlHful6QCSHQEcWs9J2eXBV
yZ4hJa4NtE+92FNqOSfR97vADhggVWXLiuJIrD4bDupLATD4vyL5DaHAbt4sFUM8
65tanEXkZdL/SiJ9kWHG2eMtVG+JElJ4s31aLoIyON+VXZKJCIJe+ZApSwoIPmqw
PmIic7jNkycZj9ZBu3tpgnNu8RYSp4Yt/NCuD/8L0OOtHS1lPA+aTObdcH6C00By
YfO1SgUldK9CZgVkjKJuoxLVSJAJ0Kq/VNZbzTlgIuI9F7eyNnNxESQJ5D3+cA3W
MClyvgyvXobVkW+ixo6XobpyO5Z56dqfip6OPnKBrwFaVSyd5HFE9zCK2E9zsVAx
+4PTrwUCAwEAAaOBxDCBwTAJBgNVHRMEAjAAMBMGA1UdJQQMMAoGCCsGAQUFBwMC
MCwGCWCGSAGG+EIBDQQfFh1PcGVuU1NMIEdlbmVyYXRlZCBDZXJ0aWZpY2F0ZTAd
BgNVHQ4EFgQU77hOazmBuU6XsheY7WoS8abZm/swHwYDVR0jBBgwFoAU4dI7N9QD
hOXYurtCPvajiAoFJRowMQYDVR0fBCowKDAmoCSgIoYgaHR0cDovLzE5Mi4xNjgu
MjEuODkvcm9vdGNybC5wZW0wDQYJKoZIhvcNAQEFBQADggIBACRAaHiMwL/8q+UB
jOUrXipWsHZ/xzq3ol2xB8cJTymUjDGWA1B66HSEa6xuWLcyk96OQSPxFyhPyHqI
Ty/btQZA7UkAYDfiOJCq4Lhwtfwvpmu42RN9i2jT3AkU8+d1rCWuB/ddJobu/1sL
guWbZFk2Sk6AdCd/Wc1uRd3eqVm6xrmRltr3sAQRT63UEg2UL3A/37LqfwTPlrVe
7Zf19WfMVNq1SAgZbk2/FcNiurKYMc+mTZOYE7wkjwN7L1aY7N0JIG/tLjHXVBRI
r7OXKDv9V0KLGo6VFzNizhy4DD2FxttX3wVqSKvsPq5SJX/9pzJFfE32T1sCz12f
fTilcMJBOdvVog8dOtRT1fHNUQmjvczxO5B3vRIgQpt3A0sJkOsGaveOAIx3jdll
vdf8qPCbCKmIU54F3Bu3SOl+unoVLMPsEyjomNajA2u4sVi8ZvSNnsdJq4f3HMWd
hak9gvc7ff96Q0b1bzTe87RDsTs9VehhYwJztYe206mlvHS6bHCtl6eCutVJOxbp
4sXW4oVyt3SlJh0XkJUR4fMcifV0ZIthjo7ZpRYsvLqc/U9xM65BvU+h1jE3dhYm
1cHE33ObWTwbv4gKreeFfMQmGqe61fkDaj65mkSqbahNYk8gALBQZgINh3SqntzV
A31u16+cy/4lZbmkT7s+VW8rYs/e
-----END CERTIFICATE-----
