Certificate:
    Data:
        Version: 3 (0x2)
        Serial Number: 9 (0x9)
        Signature Algorithm: sha1WithRSAEncryption
        Issuer: C=BA, ST=RS, O=Elektrotehnicki fakultet, OU=CA_MilanaKnezevic, CN=CA1
        Validity
            Not Before: Apr 16 10:18:38 2022 GMT
            Not After : Apr 16 10:18:38 2023 GMT
        Subject: C=BA, ST=RS, O=Elektrotehnicki fakultet, OU=CA_MilanaKnezevic, CN=TV
        Subject Public Key Info:
            Public Key Algorithm: rsaEncryption
                Public-Key: (4096 bit)
                Modulus:
                    00:f5:71:db:d7:00:1c:1f:cb:75:80:05:b0:e2:a0:
                    32:4e:03:ae:8c:05:f7:ab:c1:6e:60:60:0d:5e:f5:
                    8d:6b:b9:4c:56:cb:a5:52:06:7b:44:c6:aa:31:13:
                    d3:84:20:90:32:e7:36:09:11:74:d2:5a:de:ad:42:
                    86:e6:7c:28:8a:d2:89:50:01:2c:24:61:7d:a6:4b:
                    34:f0:21:a8:78:5e:f3:42:90:5b:7b:61:54:8b:65:
                    78:fb:b3:13:2f:5e:b3:ec:d2:26:fd:97:5b:e8:06:
                    80:3a:6a:a9:8d:bf:76:22:e0:e9:3f:3f:8c:48:29:
                    5d:29:dd:03:04:14:86:53:68:2f:57:34:6b:3e:f7:
                    14:90:ec:50:3e:ce:06:7a:92:6c:91:6d:d0:b8:9b:
                    35:81:e7:31:e8:af:e2:12:19:fb:3c:21:13:fb:40:
                    64:cd:03:ce:42:d1:66:43:31:51:71:f8:75:4d:dc:
                    8f:82:8f:57:b7:1f:f9:76:df:21:b8:97:c9:06:d3:
                    7c:ba:66:58:6b:13:0b:9f:18:d0:d7:85:21:df:d1:
                    8e:39:8f:07:1a:21:e4:11:8c:1d:cb:72:6e:5b:d4:
                    ca:eb:45:ae:a2:04:28:a0:78:fa:eb:19:e6:8d:7d:
                    3d:8c:b3:82:a4:a4:d7:95:75:92:a7:29:6a:85:2c:
                    43:c2:0d:8d:17:d6:75:e2:75:03:12:32:d7:e3:73:
                    6d:42:e7:c7:ba:8f:ba:04:ce:cc:f2:51:c0:fc:55:
                    d8:ac:14:1c:f6:cb:9a:ba:f9:46:1d:ca:c3:df:d7:
                    bc:da:b6:73:46:3b:0a:4f:a2:1e:01:c5:e4:2f:d6:
                    8c:10:d1:39:78:35:ea:0f:9e:3b:1e:03:7b:62:7e:
                    4d:d7:dd:52:de:23:07:bf:eb:3d:78:05:8f:7b:40:
                    71:53:33:cd:c4:4f:38:6a:92:7a:61:75:ed:07:a8:
                    8b:36:d3:be:ce:3a:4b:8c:82:43:60:88:c3:96:3b:
                    d4:dc:82:29:72:88:ca:74:af:fc:42:54:c0:f1:66:
                    fb:a7:f1:2d:81:fa:2b:68:6e:7c:d4:62:1b:59:6d:
                    fa:36:0f:c3:de:e3:a4:56:5b:bd:6e:81:17:09:b7:
                    1b:c7:5a:0e:75:21:3f:fb:43:80:ed:32:70:8f:bc:
                    85:4f:47:aa:5a:66:32:be:d7:48:1b:0c:4c:94:76:
                    0c:bd:fa:46:9a:7c:3d:3e:db:9d:d3:52:92:03:b2:
                    f2:22:e9:81:79:eb:39:9b:79:78:53:6f:b3:99:92:
                    9b:94:2d:91:3e:5b:0a:8e:6c:06:50:4f:ea:64:4d:
                    b5:a2:12:9c:6c:32:7a:7c:73:12:02:f6:44:ba:95:
                    cf:77:a7
                Exponent: 65537 (0x10001)
        X509v3 extensions:
            X509v3 Basic Constraints: 
                CA:FALSE
            X509v3 Extended Key Usage: 
                TLS Web Client Authentication
            Netscape Comment: 
                OpenSSL Generated Certificate
            X509v3 Subject Key Identifier: 
                ED:16:61:7F:60:E6:CF:14:4C:32:4A:09:8C:EA:28:A2:B3:5D:3D:AC
            X509v3 Authority Key Identifier: 
                E1:D2:3B:37:D4:03:84:E5:D8:BA:BB:42:3E:F6:A3:88:0A:05:25:1A
            X509v3 CRL Distribution Points: 
                Full Name:
                  URI:http://192.168.21.89/rootcrl.pem
    Signature Algorithm: sha1WithRSAEncryption
    Signature Value:
        88:74:3f:5b:bf:55:ac:40:d2:68:56:2d:84:f8:ef:89:3b:41:
        9e:d0:34:f6:8b:73:00:a4:40:98:b9:8e:ed:ad:91:cf:97:f8:
        91:b5:f8:59:94:fc:23:d4:bc:9e:a4:d3:d5:80:8d:e6:a8:18:
        62:a8:d1:64:1a:87:24:b5:93:16:7e:4d:50:36:26:d4:09:63:
        0b:65:d5:ff:e3:a4:8c:89:bf:ee:b2:f4:e6:62:cc:3d:62:76:
        f1:2d:cc:be:c3:f2:aa:ac:b1:75:9d:af:a8:0a:5f:89:eb:e5:
        b9:66:87:95:1b:2e:1e:be:bb:7a:f6:81:10:2c:19:b0:b0:40:
        aa:fd:d4:fd:98:50:ab:af:75:d6:f1:8d:64:d1:10:1c:ad:74:
        b1:00:de:d9:ec:16:29:61:cf:32:10:d2:15:58:64:46:78:14:
        8d:7e:03:41:6d:fd:11:a8:54:93:41:57:6f:d6:03:c0:0e:db:
        ea:2c:fc:4f:f2:af:cc:fd:53:4f:8a:a5:f0:ce:0d:31:c7:03:
        5e:d6:c7:63:d2:d5:88:f5:57:ac:a0:c6:51:e6:b6:64:3b:8b:
        69:d5:7a:ce:31:e5:5f:c9:ee:26:66:2a:a0:e0:c6:33:17:74:
        ea:eb:82:37:83:5c:9f:47:ad:a6:1a:0d:ec:5c:d0:bf:c6:71:
        2a:48:b4:2a:44:98:c6:eb:a5:1c:f4:ad:6c:aa:cd:30:cc:d9:
        c2:d5:a3:1d:b0:e6:02:2c:c7:a4:15:13:97:8a:6a:11:56:2b:
        d9:26:c6:b0:a5:00:75:a1:c7:1a:67:f7:32:55:a1:d1:fb:0a:
        da:78:71:4c:b5:b8:78:77:d5:29:e9:a0:3c:f7:3b:25:1f:c6:
        12:b1:6f:39:8d:84:69:d6:26:40:b8:9c:06:fb:7e:cd:36:65:
        41:bb:50:26:81:bb:a0:8c:fa:20:19:eb:01:ab:7f:fd:1e:98:
        86:aa:20:ae:aa:d3:70:49:fd:42:a9:22:ac:a6:bc:5a:04:ec:
        1e:c1:7d:1b:4a:d4:44:f6:2c:51:84:80:a6:04:47:62:21:dd:
        69:6d:86:a3:3e:8f:66:b5:12:e3:45:fe:b2:ef:cb:9c:07:ca:
        40:8d:ef:29:e3:ac:c1:2f:e4:70:9c:fc:0e:08:dd:0a:d5:93:
        13:85:7b:38:5e:1e:1a:b7:6e:d6:75:8c:59:24:41:24:1d:dd:
        be:3c:66:19:92:9f:24:0a:83:48:6c:9d:0e:96:60:23:bd:3a:
        a5:51:18:23:ef:27:74:f1:5a:1f:d1:d3:36:0e:e2:aa:4e:a5:
        38:de:db:f9:e7:63:c5:94:39:c6:be:a8:6e:97:dd:43:df:bd:
        58:d9:71:fd:56:70:fc:67
-----BEGIN CERTIFICATE-----
MIIGDTCCA/WgAwIBAgIBCTANBgkqhkiG9w0BAQUFADBnMQswCQYDVQQGEwJCQTEL
MAkGA1UECBMCUlMxITAfBgNVBAoTGEVsZWt0cm90ZWhuaWNraSBmYWt1bHRldDEa
MBgGA1UECxQRQ0FfTWlsYW5hS25lemV2aWMxDDAKBgNVBAMTA0NBMTAeFw0yMjA0
MTYxMDE4MzhaFw0yMzA0MTYxMDE4MzhaMGYxCzAJBgNVBAYTAkJBMQswCQYDVQQI
EwJSUzEhMB8GA1UEChMYRWxla3Ryb3RlaG5pY2tpIGZha3VsdGV0MRowGAYDVQQL
FBFDQV9NaWxhbmFLbmV6ZXZpYzELMAkGA1UEAxMCVFYwggIiMA0GCSqGSIb3DQEB
AQUAA4ICDwAwggIKAoICAQD1cdvXABwfy3WABbDioDJOA66MBferwW5gYA1e9Y1r
uUxWy6VSBntExqoxE9OEIJAy5zYJEXTSWt6tQobmfCiK0olQASwkYX2mSzTwIah4
XvNCkFt7YVSLZXj7sxMvXrPs0ib9l1voBoA6aqmNv3Yi4Ok/P4xIKV0p3QMEFIZT
aC9XNGs+9xSQ7FA+zgZ6kmyRbdC4mzWB5zHor+ISGfs8IRP7QGTNA85C0WZDMVFx
+HVN3I+Cj1e3H/l23yG4l8kG03y6ZlhrEwufGNDXhSHf0Y45jwcaIeQRjB3Lcm5b
1MrrRa6iBCigePrrGeaNfT2Ms4KkpNeVdZKnKWqFLEPCDY0X1nXidQMSMtfjc21C
58e6j7oEzszyUcD8VdisFBz2y5q6+UYdysPf17zatnNGOwpPoh4BxeQv1owQ0Tl4
NeoPnjseA3tifk3X3VLeIwe/6z14BY97QHFTM83ETzhqknphde0HqIs2077OOkuM
gkNgiMOWO9TcgilyiMp0r/xCVMDxZvun8S2B+itobnzUYhtZbfo2D8Pe46RWW71u
gRcJtxvHWg51IT/7Q4DtMnCPvIVPR6paZjK+10gbDEyUdgy9+kaafD0+253TUpID
svIi6YF56zmbeXhTb7OZkpuULZE+WwqObAZQT+pkTbWiEpxsMnp8cxIC9kS6lc93
pwIDAQABo4HEMIHBMAkGA1UdEwQCMAAwEwYDVR0lBAwwCgYIKwYBBQUHAwIwLAYJ
YIZIAYb4QgENBB8WHU9wZW5TU0wgR2VuZXJhdGVkIENlcnRpZmljYXRlMB0GA1Ud
DgQWBBTtFmF/YObPFEwySgmM6iiis109rDAfBgNVHSMEGDAWgBTh0js31AOE5di6
u0I+9qOICgUlGjAxBgNVHR8EKjAoMCagJKAihiBodHRwOi8vMTkyLjE2OC4yMS44
OS9yb290Y3JsLnBlbTANBgkqhkiG9w0BAQUFAAOCAgEAiHQ/W79VrEDSaFYthPjv
iTtBntA09otzAKRAmLmO7a2Rz5f4kbX4WZT8I9S8nqTT1YCN5qgYYqjRZBqHJLWT
Fn5NUDYm1AljC2XV/+OkjIm/7rL05mLMPWJ28S3MvsPyqqyxdZ2vqApfievluWaH
lRsuHr67evaBECwZsLBAqv3U/ZhQq6911vGNZNEQHK10sQDe2ewWKWHPMhDSFVhk
RngUjX4DQW39EahUk0FXb9YDwA7b6iz8T/KvzP1TT4ql8M4NMccDXtbHY9LViPVX
rKDGUea2ZDuLadV6zjHlX8nuJmYqoODGMxd06uuCN4Ncn0etphoN7FzQv8ZxKki0
KkSYxuulHPStbKrNMMzZwtWjHbDmAizHpBUTl4pqEVYr2SbGsKUAdaHHGmf3MlWh
0fsK2nhxTLW4eHfVKemgPPc7JR/GErFvOY2EadYmQLicBvt+zTZlQbtQJoG7oIz6
IBnrAat//R6YhqogrqrTcEn9QqkirKa8WgTsHsF9G0rURPYsUYSApgRHYiHdaW2G
oz6PZrUS40X+su/LnAfKQI3vKeOswS/kcJz8DgjdCtWTE4V7OF4eGrdu1nWMWSRB
JB3dvjxmGZKfJAqDSGydDpZgI706pVEYI+8ndPFaH9HTNg7iqk6lON7b+edjxZQ5
xr6obpfdQ9+9WNlx/VZw/Gc=
-----END CERTIFICATE-----
