Certificate:
    Data:
        Version: 3 (0x2)
        Serial Number: 1 (0x1)
        Signature Algorithm: sha1WithRSAEncryption
        Issuer: C=BA, ST=RS, L=Banja Luka, O=Elektrotehnicki fakultet, OU=CA_MilanaKnezevic, CN=milana
        Validity
            Not Before: Apr 13 17:01:24 2022 GMT
            Not After : Apr 13 17:01:24 2023 GMT
        Subject: C=BA, ST=RS, O=Elektrotehnicki fakultet, OU=CA_MilanaKnezevic, CN=CA1
        Subject Public Key Info:
            Public Key Algorithm: rsaEncryption
                Public-Key: (4096 bit)
                Modulus:
                    00:be:54:3b:e4:a2:a9:ae:98:64:6b:65:d1:f4:78:
                    e1:74:0d:57:ab:84:79:18:f0:11:4d:f4:c7:d3:8f:
                    ee:19:df:db:d9:0c:93:58:c7:25:e8:ac:07:d0:d1:
                    4d:78:10:71:48:7b:db:71:8e:4f:98:04:50:3b:2f:
                    e1:bc:85:e9:e9:a6:fb:30:72:be:72:ca:0b:63:40:
                    8e:b2:c8:62:4b:3c:1c:f6:7f:a7:1f:0f:ae:8f:ec:
                    ac:04:12:3a:c8:01:64:ac:c9:94:08:a2:66:4e:5a:
                    c4:db:3c:4c:d2:24:7b:ad:ce:eb:40:a6:07:f4:7a:
                    16:58:9f:b1:d2:0b:57:22:83:ec:16:e5:9f:76:73:
                    57:a4:dc:dc:6a:90:e8:f7:51:3b:1b:57:78:23:d3:
                    45:09:7a:f0:d4:68:1a:d6:ca:74:d0:c8:43:43:5e:
                    4b:36:4b:68:58:c4:3d:f8:a3:0f:d9:c2:c1:b9:fb:
                    5b:b0:89:e7:9d:94:dc:fb:ad:7c:0d:a7:46:4f:91:
                    7e:f5:f4:a5:3b:be:22:8d:5e:79:42:86:a1:d1:62:
                    13:43:19:50:3b:b3:fd:f2:0c:09:91:5b:7c:23:74:
                    a3:10:7d:72:fc:73:9d:25:3b:57:ae:1e:5a:08:04:
                    82:1c:0f:42:bd:be:f3:62:75:ef:47:48:66:ec:70:
                    c1:1f:49:d2:be:6a:96:42:74:e3:d4:6e:85:60:6a:
                    32:fc:74:97:ac:55:15:72:62:b8:83:2c:0d:ee:56:
                    10:d8:1d:cb:da:56:78:69:f3:bb:c9:3f:24:f9:0f:
                    43:8a:f5:13:92:4a:dc:16:65:2f:28:4a:5e:28:af:
                    4d:87:5a:bf:a0:25:27:eb:be:d3:4b:8d:b7:34:9b:
                    1d:60:8b:36:83:fa:45:03:e0:50:11:b8:00:db:41:
                    b7:3a:9f:85:ef:71:2b:10:24:e6:e8:61:04:59:cd:
                    c9:91:ff:a4:d9:29:9c:f4:df:96:26:34:0d:c6:da:
                    5d:b2:32:b2:15:df:6f:d1:76:f4:43:50:77:08:2b:
                    c9:5f:e1:2f:45:94:c7:2c:86:5e:46:59:fc:8c:cb:
                    49:53:90:0a:33:b6:89:32:cb:19:e9:6a:aa:15:cc:
                    0c:92:41:0d:85:e1:39:a1:4b:e6:a1:12:00:fa:c6:
                    e2:97:d8:66:e5:61:88:33:45:9e:e6:fb:fa:b8:ee:
                    d2:22:31:95:d6:80:c8:9e:76:80:40:86:7e:21:6a:
                    16:0b:84:8c:2a:93:f9:6e:aa:3b:1b:d9:1e:01:47:
                    be:44:3e:65:07:0f:b2:bf:94:de:26:01:ec:71:6b:
                    21:fc:d9:c9:61:8e:09:4f:e5:5e:78:93:a4:78:22:
                    4e:24:07
                Exponent: 65537 (0x10001)
        X509v3 extensions:
            X509v3 Basic Constraints: 
                CA:FALSE
            X509v3 Extended Key Usage: 
                TLS Web Client Authentication
            Netscape Comment: 
                OpenSSL Generated Certificate
            X509v3 Subject Key Identifier: 
                4D:6C:9A:C9:90:D2:6F:01:19:35:6F:84:F6:04:59:6F:55:3D:60:44
            X509v3 Authority Key Identifier: 
                C1:4E:EA:A4:6A:37:A2:5B:2D:90:A5:5C:D7:78:0C:42:51:64:83:47
            X509v3 CRL Distribution Points: 
                Full Name:
                  URI:http://192.168.21.89/rootcrl.pem
    Signature Algorithm: sha1WithRSAEncryption
    Signature Value:
        08:25:d2:51:d0:7e:22:00:38:e3:1c:0a:29:a6:13:87:40:5a:
        2d:96:64:87:36:83:09:f6:d4:a2:f3:f6:73:17:68:9d:73:fe:
        51:72:f4:5f:f3:94:54:d5:7e:35:bd:bc:46:bd:dd:d7:83:b5:
        c1:56:89:08:96:4a:52:4b:ce:60:6f:e5:51:57:c6:e4:d2:4e:
        d2:f2:95:53:9b:e5:3b:d4:f4:46:79:3c:54:92:87:76:90:18:
        36:fd:28:22:4e:42:5b:6f:72:ea:1d:13:7c:95:b6:09:90:00:
        10:59:25:8e:50:b2:a8:10:56:0e:73:a4:b9:82:ad:de:28:5c:
        51:ae:7f:13:6e:f8:56:9a:85:13:61:84:98:1d:9a:a3:f0:9b:
        7d:11:26:2b:87:5e:da:e3:ff:7a:1f:3e:0d:ac:63:c2:4c:8d:
        25:d6:2b:e4:cb:34:8d:bb:44:7f:24:aa:93:09:62:27:2f:10:
        1d:3a:1e:f5:89:2e:a0:61:db:a6:dd:aa:55:9c:b5:82:75:21:
        1e:68:b2:cb:48:b2:71:14:43:23:df:6f:2c:01:53:57:21:53:
        13:b0:32:d8:64:41:0f:a8:32:38:e2:42:78:c8:15:e2:f7:8f:
        0e:7b:12:54:b1:6b:b2:b5:14:1c:7d:cd:c3:53:d8:77:6e:22:
        a9:cc:53:a2:68:a2:b3:a7:f8:7e:0c:8f:c9:07:0a:fb:bd:3c:
        1f:a1:0a:15:d3:4a:f4:a3:ae:97:33:1b:03:11:78:2d:a8:be:
        37:f9:07:08:c7:c9:75:a9:1a:87:41:7d:79:35:3f:86:08:ef:
        81:76:2a:c9:da:ed:5f:c8:0a:34:69:a7:46:e9:60:cc:48:41:
        be:06:d2:d6:47:95:c6:43:64:b9:61:0f:2f:c0:24:4f:a8:6a:
        4a:60:bd:ba:0b:51:5a:48:54:90:c7:a1:61:1c:02:1e:e0:4f:
        7c:ed:ed:a6:42:11:b9:c2:a7:d7:38:11:55:4a:fe:d6:d8:e9:
        91:21:1e:5b:81:0e:05:17:22:d6:f4:a0:dd:36:a8:7a:ec:c9:
        63:c1:a1:24:98:87:fb:74:0b:5a:b3:b2:a9:0e:4a:73:61:b5:
        2b:26:d8:f9:14:28:23:f0:93:92:cd:f5:c5:40:7e:30:ff:c3:
        56:4d:b1:ac:cf:c6:6d:57:07:da:c1:01:0a:cc:f0:19:4f:6b:
        c4:8f:e6:0b:a9:cf:35:61:79:33:1f:f2:a2:89:16:0e:51:1e:
        db:57:3c:81:e8:fc:56:1c:3b:20:f7:b5:10:23:e1:5b:13:6b:
        f9:84:61:b5:4c:8a:d1:a2:b9:ba:fd:c9:fd:d1:e2:79:01:49:
        dc:29:91:44:f7:97:34:4d
-----BEGIN CERTIFICATE-----
MIIGJjCCBA6gAwIBAgIBATANBgkqhkiG9w0BAQUFADB/MQswCQYDVQQGEwJCQTEL
MAkGA1UECBMCUlMxEzARBgNVBAcTCkJhbmphIEx1a2ExITAfBgNVBAoTGEVsZWt0
cm90ZWhuaWNraSBmYWt1bHRldDEaMBgGA1UECxQRQ0FfTWlsYW5hS25lemV2aWMx
DzANBgNVBAMTBm1pbGFuYTAeFw0yMjA0MTMxNzAxMjRaFw0yMzA0MTMxNzAxMjRa
MGcxCzAJBgNVBAYTAkJBMQswCQYDVQQIEwJSUzEhMB8GA1UEChMYRWxla3Ryb3Rl
aG5pY2tpIGZha3VsdGV0MRowGAYDVQQLFBFDQV9NaWxhbmFLbmV6ZXZpYzEMMAoG
A1UEAxMDQ0ExMIICIjANBgkqhkiG9w0BAQEFAAOCAg8AMIICCgKCAgEAvlQ75KKp
rphka2XR9HjhdA1Xq4R5GPARTfTH04/uGd/b2QyTWMcl6KwH0NFNeBBxSHvbcY5P
mARQOy/hvIXp6ab7MHK+csoLY0COsshiSzwc9n+nHw+uj+ysBBI6yAFkrMmUCKJm
TlrE2zxM0iR7rc7rQKYH9HoWWJ+x0gtXIoPsFuWfdnNXpNzcapDo91E7G1d4I9NF
CXrw1Gga1sp00MhDQ15LNktoWMQ9+KMP2cLBuftbsInnnZTc+618DadGT5F+9fSl
O74ijV55Qoah0WITQxlQO7P98gwJkVt8I3SjEH1y/HOdJTtXrh5aCASCHA9Cvb7z
YnXvR0hm7HDBH0nSvmqWQnTj1G6FYGoy/HSXrFUVcmK4gywN7lYQ2B3L2lZ4afO7
yT8k+Q9DivUTkkrcFmUvKEpeKK9Nh1q/oCUn677TS423NJsdYIs2g/pFA+BQEbgA
20G3Op+F73ErECTm6GEEWc3Jkf+k2Smc9N+WJjQNxtpdsjKyFd9v0Xb0Q1B3CCvJ
X+EvRZTHLIZeRln8jMtJU5AKM7aJMssZ6WqqFcwMkkENheE5oUvmoRIA+sbil9hm
5WGIM0We5vv6uO7SIjGV1oDInnaAQIZ+IWoWC4SMKpP5bqo7G9keAUe+RD5lBw+y
v5TeJgHscWsh/NnJYY4JT+VeeJOkeCJOJAcCAwEAAaOBxDCBwTAJBgNVHRMEAjAA
MBMGA1UdJQQMMAoGCCsGAQUFBwMCMCwGCWCGSAGG+EIBDQQfFh1PcGVuU1NMIEdl
bmVyYXRlZCBDZXJ0aWZpY2F0ZTAdBgNVHQ4EFgQUTWyayZDSbwEZNW+E9gRZb1U9
YEQwHwYDVR0jBBgwFoAUwU7qpGo3olstkKVc13gMQlFkg0cwMQYDVR0fBCowKDAm
oCSgIoYgaHR0cDovLzE5Mi4xNjguMjEuODkvcm9vdGNybC5wZW0wDQYJKoZIhvcN
AQEFBQADggIBAAgl0lHQfiIAOOMcCimmE4dAWi2WZIc2gwn21KLz9nMXaJ1z/lFy
9F/zlFTVfjW9vEa93deDtcFWiQiWSlJLzmBv5VFXxuTSTtLylVOb5TvU9EZ5PFSS
h3aQGDb9KCJOQltvcuodE3yVtgmQABBZJY5QsqgQVg5zpLmCrd4oXFGufxNu+Faa
hRNhhJgdmqPwm30RJiuHXtrj/3ofPg2sY8JMjSXWK+TLNI27RH8kqpMJYicvEB06
HvWJLqBh26bdqlWctYJ1IR5osstIsnEUQyPfbywBU1chUxOwMthkQQ+oMjjiQnjI
FeL3jw57ElSxa7K1FBx9zcNT2HduIqnMU6JoorOn+H4Mj8kHCvu9PB+hChXTSvSj
rpczGwMReC2ovjf5BwjHyXWpGodBfXk1P4YI74F2Ksna7V/ICjRpp0bpYMxIQb4G
0tZHlcZDZLlhDy/AJE+oakpgvboLUVpIVJDHoWEcAh7gT3zt7aZCEbnCp9c4EVVK
/tbY6ZEhHluBDgUXItb0oN02qHrsyWPBoSSYh/t0C1qzsqkOSnNhtSsm2PkUKCPw
k5LN9cVAfjD/w1ZNsazPxm1XB9rBAQrM8BlPa8SP5gupzzVheTMf8qKJFg5RHttX
PIHo/FYcOyD3tRAj4VsTa/mEYbVMitGiubr9yf3R4nkBSdwpkUT3lzRN
-----END CERTIFICATE-----
