Certificate:
    Data:
        Version: 3 (0x2)
        Serial Number: 4 (0x4)
        Signature Algorithm: sha1WithRSAEncryption
        Issuer: C=BA, ST=RS, O=Elektrotehnicki fakultet, OU=CA_MilanaKnezevic, CN=CA2
        Validity
            Not Before: Apr 15 17:24:22 2022 GMT
            Not After : Apr 15 17:24:22 2023 GMT
        Subject: C=BA, ST=RS, O=Elektrotehnicki fakultet, OU=CA_MilanaKnezevic, CN=Milivoj
        Subject Public Key Info:
            Public Key Algorithm: rsaEncryption
                Public-Key: (4096 bit)
                Modulus:
                    00:b1:95:eb:b9:3f:f9:7f:e2:ef:08:33:42:38:33:
                    dc:e7:2e:4f:94:65:a6:c1:b0:c8:f7:0a:99:76:40:
                    bf:58:20:0a:4e:d4:b3:97:e9:6e:5d:ff:25:33:5e:
                    c2:ba:c0:32:71:9a:9d:dc:4b:04:a2:1b:bd:10:59:
                    a6:de:1e:8d:ca:23:47:db:bd:c5:da:f2:c7:f6:53:
                    70:69:03:64:1a:c2:b8:74:44:ba:1a:6f:e6:ba:96:
                    8a:b3:78:28:ff:7d:9c:17:1a:14:23:c9:c1:94:8f:
                    a7:01:8a:1e:a3:75:4a:e2:af:45:58:cf:a8:da:eb:
                    ab:03:44:e8:3e:0e:71:d0:62:1a:9f:96:12:bb:ad:
                    90:38:68:f9:53:2d:52:2b:29:6d:99:8f:62:f9:82:
                    e9:ef:cb:d9:46:6d:24:d0:e3:77:f5:c4:42:95:b6:
                    01:ca:a2:86:46:4c:73:0b:a4:be:a6:93:dd:ed:b9:
                    b7:48:e0:90:4d:c8:01:dd:09:b0:91:dd:d4:80:be:
                    85:0b:65:6f:55:46:b4:de:fe:2d:cc:51:d3:30:93:
                    d2:77:a9:70:57:72:07:dd:bd:33:b1:3b:f8:ce:7e:
                    78:e2:03:11:c6:0f:0b:57:8b:5f:2f:f7:7f:df:51:
                    8c:c6:a4:81:cd:ce:36:15:11:7e:bb:b5:7c:be:15:
                    73:38:90:af:4b:77:ae:a4:53:0f:cb:81:58:3c:77:
                    23:1b:d9:f8:15:7b:15:5a:e1:9d:ba:08:52:f6:83:
                    04:24:18:9e:72:e3:43:0a:b8:32:45:77:c6:62:a5:
                    b3:47:5c:84:29:b7:e9:30:46:6e:5f:ca:19:47:1c:
                    3f:ff:15:bc:63:95:e2:5f:37:10:29:f3:cc:a1:0a:
                    87:33:18:0e:07:c0:b7:27:1a:e8:d8:ff:35:1f:2c:
                    b2:fe:4c:2f:03:f0:93:34:f1:30:6d:72:1e:5c:f2:
                    d2:ff:6d:4b:88:a1:0e:c7:00:6a:d5:75:9f:10:25:
                    dd:59:34:ff:c2:22:84:28:0a:75:44:06:23:4a:fb:
                    84:b9:d7:81:2e:fb:f2:5e:bc:ca:b5:a2:34:82:e7:
                    5e:59:44:92:f1:1d:30:f1:a9:db:fc:5a:02:cd:e0:
                    e5:a0:0e:3d:b1:89:80:11:f4:f5:5f:42:1b:8f:16:
                    45:46:1e:6b:5c:b1:88:9b:a2:b5:62:64:10:44:60:
                    23:99:6c:43:d7:db:1b:b6:78:bf:92:37:08:ae:46:
                    ee:cc:43:e6:3f:1c:ca:d0:68:9e:24:c6:82:96:68:
                    4b:79:9e:35:c7:de:ba:f9:31:c6:35:f7:c0:3e:df:
                    5e:8b:55:30:ad:80:e7:6b:0f:50:48:2f:40:2d:05:
                    8e:a9:f7
                Exponent: 65537 (0x10001)
        X509v3 extensions:
            X509v3 Basic Constraints: 
                CA:FALSE
            X509v3 Extended Key Usage: 
                TLS Web Client Authentication
            Netscape Comment: 
                OpenSSL Generated Certificate
            X509v3 Subject Key Identifier: 
                A0:36:5D:D7:D3:D4:0F:41:45:FB:0C:16:BC:5B:AC:0D:22:45:20:CD
            X509v3 Authority Key Identifier: 
                EA:87:3C:7D:2A:6A:C2:DF:1E:A5:8C:49:E8:73:12:86:7B:4B:F8:76
            X509v3 CRL Distribution Points: 
                Full Name:
                  URI:http://192.168.21.89/rootcrl.pem
    Signature Algorithm: sha1WithRSAEncryption
    Signature Value:
        7e:9e:ed:c9:a3:b3:ca:91:4b:eb:c9:ca:e0:d2:8b:0c:9d:10:
        f2:65:44:e3:ba:5c:06:0b:d7:8b:65:cc:23:16:b0:14:d5:04:
        50:17:ac:18:9d:67:ca:5a:ca:88:ca:da:33:0e:06:ce:04:fb:
        a1:ab:af:c1:5a:af:b6:34:cd:fe:e0:4c:ce:f2:02:0b:cb:0f:
        4f:94:c6:c6:5d:24:73:46:4a:a2:f8:33:e3:46:31:a6:c2:6a:
        f5:57:21:6a:c1:07:fe:d5:54:8a:f8:2c:26:8b:95:c2:64:f8:
        a4:ad:7f:38:b0:d0:e4:69:26:4d:c2:4f:9d:82:7d:78:48:87:
        bb:84:15:fe:74:18:d6:8a:51:d6:ae:f8:04:b4:f9:30:32:33:
        2a:f9:1c:56:2b:9c:8c:fa:a1:b6:2a:73:2e:76:a7:6e:4a:2f:
        6a:22:90:6b:18:21:5f:44:25:9a:fb:f9:16:77:e4:25:75:7b:
        a6:6c:b8:7f:0c:b9:8c:16:2d:db:db:52:77:3a:b5:b9:31:df:
        62:d7:71:b5:66:85:45:74:6d:cc:4e:89:36:10:82:63:d6:f7:
        b7:12:09:ba:79:c7:69:f5:dc:ed:f2:81:0e:a6:da:4b:7f:33:
        30:94:8f:d0:f3:26:4c:a2:5e:3c:a8:f9:07:e2:82:23:1b:f1:
        57:2f:8e:f5:fc:bb:5e:b0:0e:f3:17:2c:12:73:4f:a3:ff:09:
        49:89:30:c7:35:c0:77:71:a7:02:be:b5:ce:c4:bf:fc:95:d9:
        8c:03:71:65:84:72:3a:5c:0b:1a:68:3d:94:33:17:75:69:40:
        65:1f:04:12:9d:4b:eb:ba:0f:26:a5:9c:8f:7b:a8:ac:27:73:
        29:ee:a6:e6:8a:fc:58:0e:31:b3:12:ed:58:75:fb:e6:3c:17:
        71:e0:a4:c4:f9:14:2b:c2:a3:d2:c2:37:82:56:e3:77:16:80:
        4c:04:33:77:85:8c:a1:d2:b6:54:9a:fa:76:62:81:4a:36:d8:
        71:ab:bf:f9:ad:10:0e:6b:f7:34:99:40:f6:b8:cc:1e:ce:6f:
        45:09:07:eb:3c:e3:f2:b1:e9:3c:cb:b0:47:87:36:b2:27:9a:
        7e:a6:b7:a6:fd:9d:dc:c6:c0:c6:d1:68:b7:68:b7:81:7d:44:
        33:64:48:d5:74:db:28:d5:df:f1:d1:a5:65:75:9e:54:28:97:
        e3:e5:8f:52:4e:ed:d9:45:03:0d:af:de:66:2f:d5:46:8c:e7:
        bf:6d:ed:1e:c0:e2:16:68:99:20:4b:9a:6f:8c:0b:87:01:29:
        10:82:2c:29:99:3a:bf:3d:f0:80:91:cc:1d:c4:d0:c1:11:05:
        95:93:81:80:9c:ab:3b:67
-----BEGIN CERTIFICATE-----
MIIGEjCCA/qgAwIBAgIBBDANBgkqhkiG9w0BAQUFADBnMQswCQYDVQQGEwJCQTEL
MAkGA1UECBMCUlMxITAfBgNVBAoTGEVsZWt0cm90ZWhuaWNraSBmYWt1bHRldDEa
MBgGA1UECxQRQ0FfTWlsYW5hS25lemV2aWMxDDAKBgNVBAMTA0NBMjAeFw0yMjA0
MTUxNzI0MjJaFw0yMzA0MTUxNzI0MjJaMGsxCzAJBgNVBAYTAkJBMQswCQYDVQQI
EwJSUzEhMB8GA1UEChMYRWxla3Ryb3RlaG5pY2tpIGZha3VsdGV0MRowGAYDVQQL
FBFDQV9NaWxhbmFLbmV6ZXZpYzEQMA4GA1UEAxMHTWlsaXZvajCCAiIwDQYJKoZI
hvcNAQEBBQADggIPADCCAgoCggIBALGV67k/+X/i7wgzQjgz3OcuT5RlpsGwyPcK
mXZAv1ggCk7Us5fpbl3/JTNewrrAMnGandxLBKIbvRBZpt4ejcojR9u9xdryx/ZT
cGkDZBrCuHREuhpv5rqWirN4KP99nBcaFCPJwZSPpwGKHqN1SuKvRVjPqNrrqwNE
6D4OcdBiGp+WErutkDho+VMtUispbZmPYvmC6e/L2UZtJNDjd/XEQpW2AcqihkZM
cwukvqaT3e25t0jgkE3IAd0JsJHd1IC+hQtlb1VGtN7+LcxR0zCT0nepcFdyB929
M7E7+M5+eOIDEcYPC1eLXy/3f99RjMakgc3ONhURfru1fL4VcziQr0t3rqRTD8uB
WDx3IxvZ+BV7FVrhnboIUvaDBCQYnnLjQwq4MkV3xmKls0dchCm36TBGbl/KGUcc
P/8VvGOV4l83ECnzzKEKhzMYDgfAtyca6Nj/NR8ssv5MLwPwkzTxMG1yHlzy0v9t
S4ihDscAatV1nxAl3Vk0/8IihCgKdUQGI0r7hLnXgS778l68yrWiNILnXllEkvEd
MPGp2/xaAs3g5aAOPbGJgBH09V9CG48WRUYea1yxiJuitWJkEERgI5lsQ9fbG7Z4
v5I3CK5G7sxD5j8cytBoniTGgpZoS3meNcfeuvkxxjX3wD7fXotVMK2A52sPUEgv
QC0Fjqn3AgMBAAGjgcQwgcEwCQYDVR0TBAIwADATBgNVHSUEDDAKBggrBgEFBQcD
AjAsBglghkgBhvhCAQ0EHxYdT3BlblNTTCBHZW5lcmF0ZWQgQ2VydGlmaWNhdGUw
HQYDVR0OBBYEFKA2XdfT1A9BRfsMFrxbrA0iRSDNMB8GA1UdIwQYMBaAFOqHPH0q
asLfHqWMSehzEoZ7S/h2MDEGA1UdHwQqMCgwJqAkoCKGIGh0dHA6Ly8xOTIuMTY4
LjIxLjg5L3Jvb3RjcmwucGVtMA0GCSqGSIb3DQEBBQUAA4ICAQB+nu3Jo7PKkUvr
ycrg0osMnRDyZUTjulwGC9eLZcwjFrAU1QRQF6wYnWfKWsqIytozDgbOBPuhq6/B
Wq+2NM3+4EzO8gILyw9PlMbGXSRzRkqi+DPjRjGmwmr1VyFqwQf+1VSK+Cwmi5XC
ZPikrX84sNDkaSZNwk+dgn14SIe7hBX+dBjWilHWrvgEtPkwMjMq+RxWK5yM+qG2
KnMudqduSi9qIpBrGCFfRCWa+/kWd+QldXumbLh/DLmMFi3b21J3OrW5Md9i13G1
ZoVFdG3MTok2EIJj1ve3Egm6ecdp9dzt8oEOptpLfzMwlI/Q8yZMol48qPkH4oIj
G/FXL471/LtesA7zFywSc0+j/wlJiTDHNcB3cacCvrXOxL/8ldmMA3FlhHI6XAsa
aD2UMxd1aUBlHwQSnUvrug8mpZyPe6isJ3Mp7qbmivxYDjGzEu1YdfvmPBdx4KTE
+RQrwqPSwjeCVuN3FoBMBDN3hYyh0rZUmvp2YoFKNthxq7/5rRAOa/c0mUD2uMwe
zm9FCQfrPOPysek8y7BHhzayJ5p+prem/Z3cxsDG0Wi3aLeBfUQzZEjVdNso1d/x
0aVldZ5UKJfj5Y9STu3ZRQMNr95mL9VGjOe/be0ewOIWaJkgS5pvjAuHASkQgiwp
mTq/PfCAkcwdxNDBEQWVk4GAnKs7Zw==
-----END CERTIFICATE-----
