Certificate:
    Data:
        Version: 3 (0x2)
        Serial Number: 3 (0x3)
        Signature Algorithm: sha1WithRSAEncryption
        Issuer: C=BA, ST=RS, O=Elektrotehnicki fakultet, OU=CA_MilanaKnezevic, CN=CA2
        Validity
            Not Before: Apr 14 22:01:43 2022 GMT
            Not After : Apr 14 22:01:43 2023 GMT
        Subject: C=BA, ST=RS, O=Elektrotehnicki fakultet, OU=CA_MilanaKnezevic, CN=Dea
        Subject Public Key Info:
            Public Key Algorithm: rsaEncryption
                Public-Key: (4096 bit)
                Modulus:
                    00:c4:b9:14:ea:52:6a:ee:f3:9f:a1:8f:7b:a3:1b:
                    41:8b:25:99:c1:80:03:0a:71:31:5d:d2:99:4f:04:
                    24:e5:e1:7e:cf:9c:f0:26:76:ec:c5:38:23:b4:05:
                    2e:0e:92:39:5b:f0:03:84:e4:6e:ac:06:ed:bb:1f:
                    ae:89:d2:de:07:9b:93:f5:c3:3f:34:8a:ef:83:48:
                    06:3c:ce:da:80:f7:6b:32:bb:e1:36:8f:50:b5:c2:
                    1c:9e:04:65:68:87:37:83:25:dd:66:b7:66:40:c3:
                    18:52:ef:9b:7b:bb:dd:99:19:89:93:ee:0c:9d:6b:
                    d0:da:c5:a7:df:68:c4:01:a8:72:c0:9e:2b:97:1f:
                    ab:ec:58:3c:6b:a7:f1:de:1a:49:7d:c6:83:61:95:
                    33:78:e2:9f:94:9b:b0:22:f5:cc:5a:65:e3:e2:b9:
                    62:7d:7f:d9:7e:f9:89:df:13:5d:dd:dc:20:a9:a0:
                    f7:24:6b:05:96:41:c9:a1:4c:c9:08:3e:4f:9f:c9:
                    29:45:af:79:29:67:c5:39:1f:b5:7e:f0:68:33:2e:
                    f3:9c:3c:eb:d9:8a:45:9e:7d:3d:47:86:bb:1c:68:
                    9f:c5:8f:80:ea:20:1b:06:87:fa:59:9f:3f:58:98:
                    6f:95:ef:94:2e:0e:42:28:98:d6:07:55:48:08:a3:
                    69:16:28:28:7c:36:6b:cd:bc:97:06:b2:fd:91:5c:
                    42:a6:3a:4a:18:88:85:d1:54:ed:55:6a:01:59:fa:
                    80:80:a6:34:b1:b5:b8:1d:5b:e1:f2:b2:42:fd:6a:
                    d8:81:8b:ba:7f:a0:ef:00:54:04:9a:0b:c6:6c:87:
                    6c:a6:36:05:2b:5f:a4:ca:f0:3f:ab:1e:d5:d5:bc:
                    d4:a9:3c:83:2b:e0:75:8b:04:7b:fc:e1:df:3e:ea:
                    34:0d:d0:3e:d6:ac:3e:af:7e:75:81:14:07:0a:cf:
                    49:b0:a0:dd:3b:c3:6b:43:a9:40:45:a3:a7:a4:f0:
                    e6:4b:ef:84:65:51:33:cb:b9:1f:eb:cf:79:fc:e3:
                    11:f6:96:32:f5:b4:f0:26:45:48:a7:b3:28:98:b4:
                    fd:cf:99:c4:20:42:cc:68:69:b9:ee:83:72:14:80:
                    08:d1:0d:14:82:f8:63:61:c1:68:7c:b3:b8:ac:21:
                    8d:3c:d3:0d:86:f4:2b:49:db:27:87:08:7b:a5:d7:
                    ab:63:cb:d2:43:a9:71:0e:40:9d:91:3f:a8:3b:e9:
                    66:13:4d:11:b0:07:e1:b5:af:be:9f:33:98:22:4c:
                    a7:60:87:39:76:97:e9:66:9c:3f:ce:4c:fc:6c:ac:
                    43:94:a3:2a:67:4e:90:31:1d:24:7e:8f:83:51:60:
                    43:08:a1
                Exponent: 65537 (0x10001)
        X509v3 extensions:
            X509v3 Basic Constraints: 
                CA:FALSE
            X509v3 Extended Key Usage: 
                TLS Web Client Authentication
            Netscape Comment: 
                OpenSSL Generated Certificate
            X509v3 Subject Key Identifier: 
                40:59:66:74:30:65:FF:3D:3B:CD:ED:BB:4C:61:4D:66:57:98:4F:95
            X509v3 Authority Key Identifier: 
                EA:87:3C:7D:2A:6A:C2:DF:1E:A5:8C:49:E8:73:12:86:7B:4B:F8:76
            X509v3 CRL Distribution Points: 
                Full Name:
                  URI:http://192.168.21.89/rootcrl.pem
    Signature Algorithm: sha1WithRSAEncryption
    Signature Value:
        0e:35:a4:8b:60:51:51:15:f1:e8:51:fa:31:26:ed:44:35:f8:
        da:6a:58:1a:0a:66:f3:22:dc:99:f5:e3:0a:7c:30:96:3e:78:
        42:56:86:cf:a8:7b:b9:b0:c1:3a:c8:38:f6:cb:a9:92:61:fd:
        06:9c:06:b1:af:db:e0:91:8a:2d:53:74:63:1f:18:47:99:af:
        36:7f:c1:b2:84:69:cc:fe:31:02:4a:e6:66:cd:83:33:80:0b:
        b6:67:e1:a7:36:fc:65:5e:e2:fe:06:f2:e3:cd:95:f9:1b:f7:
        b6:20:1f:b7:d5:43:18:50:7c:43:5d:e5:29:fa:4a:c1:1f:75:
        ee:b3:ee:6a:30:f0:c7:1e:8e:3d:9e:1c:17:2f:f7:fc:03:84:
        2e:a6:12:a8:a5:fc:93:be:22:19:fc:d2:28:84:64:49:f0:35:
        af:2b:0d:8e:2f:fb:8f:0e:85:f4:ee:1a:3c:9c:a7:0d:61:43:
        e5:dd:ab:59:86:2b:8e:c0:e6:33:7d:0e:43:dd:84:eb:16:42:
        9d:8a:13:56:b6:28:63:b5:af:ef:40:dc:38:c2:74:6f:d4:1a:
        39:da:a2:49:9b:50:17:04:1a:d1:56:37:8f:77:91:b7:a2:ed:
        e5:bd:a6:41:2a:14:90:db:06:a8:7d:4d:60:2a:57:69:35:94:
        15:84:71:36:c2:13:29:aa:f4:4d:f3:c3:ac:d5:35:89:69:dc:
        a7:ed:5a:92:4b:32:4e:ec:80:0e:44:17:9d:4e:41:7e:c8:39:
        41:68:94:88:b8:89:dd:8c:80:67:f1:f5:16:8e:2e:a1:f2:81:
        30:31:c6:1c:1f:ec:85:ec:32:40:f7:c1:27:64:62:5a:e2:3f:
        77:4a:ef:86:ec:8f:1c:7d:c5:85:ed:1d:e2:b7:3e:75:1b:d1:
        a9:a8:d3:27:e5:5a:8c:69:50:8e:ce:6c:05:a4:5b:ab:4a:2d:
        ea:93:26:0e:1b:ac:bf:0a:d4:41:c1:52:9a:65:82:5d:e3:dc:
        da:e9:16:87:1a:47:3b:72:b7:b4:d7:d1:6d:5d:bf:a7:57:d3:
        dd:3c:4a:4c:ce:38:f9:73:dc:a0:33:ea:16:57:c3:6f:60:97:
        95:07:45:b9:b9:b4:ed:42:0f:a2:a9:65:97:e4:08:6b:5c:8f:
        f5:c9:07:5f:d3:ba:52:9b:1e:ca:01:32:1f:ed:b7:7f:e5:3a:
        1b:ac:b5:12:27:b3:05:81:2b:07:71:67:8d:ba:c7:28:b0:60:
        2c:5f:11:17:01:16:af:ce:7f:66:cb:68:7a:b2:88:b1:e3:8a:
        00:c7:82:c1:6f:b3:26:d2:77:0c:51:ca:c3:f3:c2:27:ea:83:
        6d:1b:6a:01:a9:6f:07:de
-----BEGIN CERTIFICATE-----
MIIGDjCCA/agAwIBAgIBAzANBgkqhkiG9w0BAQUFADBnMQswCQYDVQQGEwJCQTEL
MAkGA1UECBMCUlMxITAfBgNVBAoTGEVsZWt0cm90ZWhuaWNraSBmYWt1bHRldDEa
MBgGA1UECxQRQ0FfTWlsYW5hS25lemV2aWMxDDAKBgNVBAMTA0NBMjAeFw0yMjA0
MTQyMjAxNDNaFw0yMzA0MTQyMjAxNDNaMGcxCzAJBgNVBAYTAkJBMQswCQYDVQQI
EwJSUzEhMB8GA1UEChMYRWxla3Ryb3RlaG5pY2tpIGZha3VsdGV0MRowGAYDVQQL
FBFDQV9NaWxhbmFLbmV6ZXZpYzEMMAoGA1UEAxMDRGVhMIICIjANBgkqhkiG9w0B
AQEFAAOCAg8AMIICCgKCAgEAxLkU6lJq7vOfoY97oxtBiyWZwYADCnExXdKZTwQk
5eF+z5zwJnbsxTgjtAUuDpI5W/ADhORurAbtux+uidLeB5uT9cM/NIrvg0gGPM7a
gPdrMrvhNo9QtcIcngRlaIc3gyXdZrdmQMMYUu+be7vdmRmJk+4MnWvQ2sWn32jE
AahywJ4rlx+r7Fg8a6fx3hpJfcaDYZUzeOKflJuwIvXMWmXj4rlifX/ZfvmJ3xNd
3dwgqaD3JGsFlkHJoUzJCD5Pn8kpRa95KWfFOR+1fvBoMy7znDzr2YpFnn09R4a7
HGifxY+A6iAbBof6WZ8/WJhvle+ULg5CKJjWB1VICKNpFigofDZrzbyXBrL9kVxC
pjpKGIiF0VTtVWoBWfqAgKY0sbW4HVvh8rJC/WrYgYu6f6DvAFQEmgvGbIdspjYF
K1+kyvA/qx7V1bzUqTyDK+B1iwR7/OHfPuo0DdA+1qw+r351gRQHCs9JsKDdO8Nr
Q6lARaOnpPDmS++EZVEzy7kf6895/OMR9pYy9bTwJkVIp7MomLT9z5nEIELMaGm5
7oNyFIAI0Q0UgvhjYcFofLO4rCGNPNMNhvQrSdsnhwh7pderY8vSQ6lxDkCdkT+o
O+lmE00RsAfhta++nzOYIkynYIc5dpfpZpw/zkz8bKxDlKMqZ06QMR0kfo+DUWBD
CKECAwEAAaOBxDCBwTAJBgNVHRMEAjAAMBMGA1UdJQQMMAoGCCsGAQUFBwMCMCwG
CWCGSAGG+EIBDQQfFh1PcGVuU1NMIEdlbmVyYXRlZCBDZXJ0aWZpY2F0ZTAdBgNV
HQ4EFgQUQFlmdDBl/z07ze27TGFNZleYT5UwHwYDVR0jBBgwFoAU6oc8fSpqwt8e
pYxJ6HMShntL+HYwMQYDVR0fBCowKDAmoCSgIoYgaHR0cDovLzE5Mi4xNjguMjEu
ODkvcm9vdGNybC5wZW0wDQYJKoZIhvcNAQEFBQADggIBAA41pItgUVEV8ehR+jEm
7UQ1+NpqWBoKZvMi3Jn14wp8MJY+eEJWhs+oe7mwwTrIOPbLqZJh/QacBrGv2+CR
ii1TdGMfGEeZrzZ/wbKEacz+MQJK5mbNgzOAC7Zn4ac2/GVe4v4G8uPNlfkb97Yg
H7fVQxhQfENd5Sn6SsEfde6z7mow8Mcejj2eHBcv9/wDhC6mEqil/JO+Ihn80iiE
ZEnwNa8rDY4v+48OhfTuGjycpw1hQ+Xdq1mGK47A5jN9DkPdhOsWQp2KE1a2KGO1
r+9A3DjCdG/UGjnaokmbUBcEGtFWN493kbei7eW9pkEqFJDbBqh9TWAqV2k1lBWE
cTbCEymq9E3zw6zVNYlp3KftWpJLMk7sgA5EF51OQX7IOUFolIi4id2MgGfx9RaO
LqHygTAxxhwf7IXsMkD3wSdkYlriP3dK74bsjxx9xYXtHeK3PnUb0amo0yflWoxp
UI7ObAWkW6tKLeqTJg4brL8K1EHBUpplgl3j3NrpFocaRztyt7TX0W1dv6dX0908
SkzOOPlz3KAz6hZXw29gl5UHRbm5tO1CD6KpZZfkCGtcj/XJB1/TulKbHsoBMh/t
t3/lOhustRInswWBKwdxZ426xyiwYCxfERcBFq/Of2bLaHqyiLHjigDHgsFvsybS
dwxRysPzwifqg20bagGpbwfe
-----END CERTIFICATE-----
