Certificate:
    Data:
        Version: 3 (0x2)
        Serial Number: 1 (0x1)
        Signature Algorithm: sha1WithRSAEncryption
        Issuer: C=BA, ST=RS, O=Elektrotehnicki fakultet, OU=CA_MilanaKnezevic, CN=CA2
        Validity
            Not Before: Apr 14 21:54:05 2022 GMT
            Not After : Apr 14 21:54:05 2023 GMT
        Subject: C=BA, ST=RS, O=Elektrotehnicki fakultet, OU=CA_MilanaKnezevic, CN=SOS
        Subject Public Key Info:
            Public Key Algorithm: rsaEncryption
                Public-Key: (4096 bit)
                Modulus:
                    00:9e:15:94:a8:0d:3c:14:0a:af:65:3e:9c:ff:e3:
                    07:46:9c:70:fd:00:cc:a0:6d:d3:46:6b:f2:c0:c4:
                    d6:5f:73:f4:6e:7e:53:11:44:43:21:b6:cf:33:79:
                    db:f1:1a:e2:ee:4c:bf:1b:66:d2:e3:91:a2:3a:ad:
                    8b:77:83:88:94:3e:5c:dd:e2:f0:93:41:2b:70:9e:
                    cc:2c:da:a5:b9:04:09:93:65:e1:43:2a:cf:36:c2:
                    e0:4e:10:9b:37:21:51:92:a0:dc:86:04:f7:52:46:
                    0e:06:c0:29:d5:27:4e:b7:c7:4e:b7:a7:f8:30:e0:
                    8f:35:5b:06:56:14:93:24:54:8f:0d:11:69:42:37:
                    40:31:85:ff:09:ca:65:11:ec:54:87:90:35:01:76:
                    ed:10:d5:c5:62:2b:cf:d6:41:ae:b3:e4:46:65:0a:
                    3f:43:ab:05:1b:28:45:ae:1d:5e:d9:18:5b:2d:ca:
                    02:fa:a2:fe:61:2a:fb:9f:ee:95:a6:2f:fd:43:2a:
                    27:97:ea:02:78:12:7d:6b:9c:2a:80:b7:e0:68:5a:
                    76:e9:ff:91:53:89:05:60:4e:1f:e9:b9:e4:60:cc:
                    93:7e:dc:d5:f8:f0:c9:bd:6d:77:2b:f9:c4:75:d8:
                    52:4e:b6:4a:d8:3b:07:96:99:e7:13:a1:de:2a:2c:
                    d0:f8:d3:3d:68:5e:80:16:a7:4f:f9:55:5d:06:21:
                    95:6b:1d:df:e3:5e:30:f2:e1:10:59:10:1a:aa:c6:
                    f1:3a:df:f1:1f:9e:b9:9a:53:2c:b7:69:6b:96:f9:
                    3a:40:41:c1:34:34:ea:7e:e1:d0:3e:23:75:91:c8:
                    2a:05:06:35:bf:95:48:34:4b:8b:d1:67:fc:3c:27:
                    55:e7:11:e1:f9:fc:3a:7f:7a:62:6b:2d:01:50:68:
                    f9:e9:4f:eb:4a:b4:8a:e5:8a:f9:8e:f5:f0:0e:40:
                    7b:14:c5:33:65:d4:b4:44:a3:f1:13:5b:2d:1b:12:
                    fe:1f:71:9b:fa:cd:01:9e:2f:72:9a:4d:97:ee:b1:
                    24:9f:f8:b4:f1:7e:84:dd:4f:1d:2a:02:3f:21:64:
                    c3:e9:a7:a6:de:71:7c:79:d4:bc:08:1f:e2:8c:96:
                    3e:09:f7:a1:3d:b3:16:8b:7b:aa:4c:d1:c2:35:b0:
                    d4:29:91:d9:5b:7e:77:88:12:72:bb:fd:aa:8e:09:
                    b3:be:16:5b:2b:af:6d:c9:37:c2:b0:91:c9:f9:5f:
                    65:4e:f4:fd:64:49:1c:27:7e:ff:de:65:ea:22:80:
                    98:52:7b:4e:c1:c0:a2:35:50:45:b8:79:9e:ce:87:
                    00:29:71:06:ee:f1:4c:e3:82:12:c5:94:3f:a2:08:
                    42:5a:63
                Exponent: 65537 (0x10001)
        X509v3 extensions:
            X509v3 Basic Constraints: 
                CA:FALSE
            X509v3 Extended Key Usage: 
                TLS Web Client Authentication
            Netscape Comment: 
                OpenSSL Generated Certificate
            X509v3 Subject Key Identifier: 
                92:09:DE:0E:90:DC:60:03:3D:5A:AE:2C:42:F8:2A:9B:32:2F:69:89
            X509v3 Authority Key Identifier: 
                EA:87:3C:7D:2A:6A:C2:DF:1E:A5:8C:49:E8:73:12:86:7B:4B:F8:76
            X509v3 CRL Distribution Points: 
                Full Name:
                  URI:http://192.168.21.89/rootcrl.pem
    Signature Algorithm: sha1WithRSAEncryption
    Signature Value:
        7e:ed:ef:3a:85:50:e4:5f:73:62:d4:7c:27:e2:9d:bd:41:2b:
        93:45:be:b6:be:a8:f8:21:5a:55:e0:7d:88:8b:cc:eb:42:42:
        94:16:77:29:72:c1:f7:d1:41:c2:82:93:a0:bd:ee:f0:6d:4d:
        c8:99:84:17:34:b3:53:df:fc:8b:c2:4d:ab:3c:89:57:a0:85:
        33:4e:d4:70:46:c6:e7:27:92:d2:d3:db:08:3f:39:b7:79:74:
        8e:e3:32:56:4f:b1:22:ed:2d:1c:db:66:3b:57:a0:d7:ac:60:
        92:c6:8e:bf:98:33:7d:a3:d1:99:6d:21:7b:15:53:0f:51:f3:
        f6:66:a3:c1:ab:3f:e6:16:d0:6b:d0:db:d9:f6:86:06:96:47:
        2d:7c:e0:d6:73:db:5c:8f:1d:09:49:b7:67:6d:3e:ec:2b:58:
        05:87:d7:d7:65:1d:15:25:4a:d7:21:a5:2e:65:10:71:04:7e:
        b8:f1:13:42:a1:19:bc:05:4b:18:7d:45:a4:7e:e2:da:c2:69:
        ae:77:0d:b3:a7:b4:33:34:af:08:91:65:c7:a4:5a:dd:43:44:
        1a:98:63:02:bf:03:b6:be:81:75:ac:93:4e:d8:ad:ee:e1:b4:
        67:dc:f7:a3:5c:fb:86:e6:63:78:bd:1e:00:ec:e8:57:1b:aa:
        41:14:0f:31:69:f7:a5:91:54:66:b4:b5:af:8a:ea:05:1a:3f:
        de:9f:ce:13:b4:cd:19:cb:6b:57:9f:d5:a6:50:df:d1:fb:54:
        e6:09:8c:4b:73:ae:20:c6:ff:b1:87:45:ed:40:a3:a6:3d:14:
        28:6e:6a:61:d3:02:6d:ee:d5:60:0d:d7:e0:de:9e:1a:06:40:
        42:2c:44:53:2b:26:4a:f1:7e:cf:cc:a3:4b:9d:e4:a1:75:a5:
        98:f5:5f:91:b4:b4:cb:aa:09:69:e4:01:d4:f1:4a:93:d0:fc:
        88:5f:41:c9:d2:56:3a:c0:d7:f5:27:96:41:13:5c:4d:73:61:
        3e:7c:fc:85:f9:61:24:6a:51:81:e5:8e:f6:f6:a9:15:9c:c3:
        48:0f:7d:2d:2f:69:9c:f0:41:82:68:62:9e:1a:bc:08:14:18:
        45:fa:44:dc:49:95:55:85:d7:7e:f5:ce:d2:63:f1:b0:c8:b9:
        f6:01:23:11:10:dc:e1:85:a4:2d:b4:f3:1f:5e:68:58:64:13:
        ec:b5:b3:70:72:00:42:45:76:79:64:be:7b:68:2c:5e:b8:30:
        87:4c:6c:b3:4e:05:08:c8:6d:0a:c7:c7:0b:55:e3:06:1f:db:
        d8:0e:8e:87:98:03:54:52:96:69:8e:95:a9:ba:e2:73:48:7e:
        1e:97:21:58:5c:d1:1b:ad
-----BEGIN CERTIFICATE-----
MIIGDjCCA/agAwIBAgIBATANBgkqhkiG9w0BAQUFADBnMQswCQYDVQQGEwJCQTEL
MAkGA1UECBMCUlMxITAfBgNVBAoTGEVsZWt0cm90ZWhuaWNraSBmYWt1bHRldDEa
MBgGA1UECxQRQ0FfTWlsYW5hS25lemV2aWMxDDAKBgNVBAMTA0NBMjAeFw0yMjA0
MTQyMTU0MDVaFw0yMzA0MTQyMTU0MDVaMGcxCzAJBgNVBAYTAkJBMQswCQYDVQQI
EwJSUzEhMB8GA1UEChMYRWxla3Ryb3RlaG5pY2tpIGZha3VsdGV0MRowGAYDVQQL
FBFDQV9NaWxhbmFLbmV6ZXZpYzEMMAoGA1UEAxMDU09TMIICIjANBgkqhkiG9w0B
AQEFAAOCAg8AMIICCgKCAgEAnhWUqA08FAqvZT6c/+MHRpxw/QDMoG3TRmvywMTW
X3P0bn5TEURDIbbPM3nb8Rri7ky/G2bS45GiOq2Ld4OIlD5c3eLwk0ErcJ7MLNql
uQQJk2XhQyrPNsLgThCbNyFRkqDchgT3UkYOBsAp1SdOt8dOt6f4MOCPNVsGVhST
JFSPDRFpQjdAMYX/CcplEexUh5A1AXbtENXFYivP1kGus+RGZQo/Q6sFGyhFrh1e
2RhbLcoC+qL+YSr7n+6Vpi/9Qyonl+oCeBJ9a5wqgLfgaFp26f+RU4kFYE4f6bnk
YMyTftzV+PDJvW13K/nEddhSTrZK2DsHlpnnE6HeKizQ+NM9aF6AFqdP+VVdBiGV
ax3f414w8uEQWRAaqsbxOt/xH565mlMst2lrlvk6QEHBNDTqfuHQPiN1kcgqBQY1
v5VINEuL0Wf8PCdV5xHh+fw6f3piay0BUGj56U/rSrSK5Yr5jvXwDkB7FMUzZdS0
RKPxE1stGxL+H3Gb+s0Bni9ymk2X7rEkn/i08X6E3U8dKgI/IWTD6aem3nF8edS8
CB/ijJY+CfehPbMWi3uqTNHCNbDUKZHZW353iBJyu/2qjgmzvhZbK69tyTfCsJHJ
+V9lTvT9ZEkcJ37/3mXqIoCYUntOwcCiNVBFuHmezocAKXEG7vFM44ISxZQ/oghC
WmMCAwEAAaOBxDCBwTAJBgNVHRMEAjAAMBMGA1UdJQQMMAoGCCsGAQUFBwMCMCwG
CWCGSAGG+EIBDQQfFh1PcGVuU1NMIEdlbmVyYXRlZCBDZXJ0aWZpY2F0ZTAdBgNV
HQ4EFgQUkgneDpDcYAM9Wq4sQvgqmzIvaYkwHwYDVR0jBBgwFoAU6oc8fSpqwt8e
pYxJ6HMShntL+HYwMQYDVR0fBCowKDAmoCSgIoYgaHR0cDovLzE5Mi4xNjguMjEu
ODkvcm9vdGNybC5wZW0wDQYJKoZIhvcNAQEFBQADggIBAH7t7zqFUORfc2LUfCfi
nb1BK5NFvra+qPghWlXgfYiLzOtCQpQWdylywffRQcKCk6C97vBtTciZhBc0s1Pf
/IvCTas8iVeghTNO1HBGxucnktLT2wg/Obd5dI7jMlZPsSLtLRzbZjtXoNesYJLG
jr+YM32j0ZltIXsVUw9R8/Zmo8GrP+YW0GvQ29n2hgaWRy184NZz21yPHQlJt2dt
PuwrWAWH19dlHRUlStchpS5lEHEEfrjxE0KhGbwFSxh9RaR+4trCaa53DbOntDM0
rwiRZcekWt1DRBqYYwK/A7a+gXWsk07Yre7htGfc96Nc+4bmY3i9HgDs6FcbqkEU
DzFp96WRVGa0ta+K6gUaP96fzhO0zRnLa1ef1aZQ39H7VOYJjEtzriDG/7GHRe1A
o6Y9FChuamHTAm3u1WAN1+DenhoGQEIsRFMrJkrxfs/Mo0ud5KF1pZj1X5G0tMuq
CWnkAdTxSpPQ/IhfQcnSVjrA1/UnlkETXE1zYT58/IX5YSRqUYHljvb2qRWcw0gP
fS0vaZzwQYJoYp4avAgUGEX6RNxJlVWF1371ztJj8bDIufYBIxEQ3OGFpC208x9e
aFhkE+y1s3ByAEJFdnlkvntoLF64MIdMbLNOBQjIbQrHxwtV4wYf29gOjoeYA1RS
lmmOlam64nNIfh6XIVhc0Rut
-----END CERTIFICATE-----
