Certificate:
    Data:
        Version: 3 (0x2)
        Serial Number: 2 (0x2)
        Signature Algorithm: sha1WithRSAEncryption
        Issuer: C=BA, ST=RS, O=Elektrotehnicki fakultet, OU=CA_MilanaKnezevic, CN=CA2
        Validity
            Not Before: Apr 14 21:59:16 2022 GMT
            Not After : Apr 14 21:59:16 2023 GMT
        Subject: C=BA, ST=RS, O=Elektrotehnicki fakultet, OU=CA_MilanaKnezevic, CN=Dalibor
        Subject Public Key Info:
            Public Key Algorithm: rsaEncryption
                Public-Key: (4096 bit)
                Modulus:
                    00:e2:2f:c5:44:d5:68:d5:18:44:40:8b:20:f8:ee:
                    94:a9:38:2c:a7:ac:31:a5:05:fd:39:7a:e2:57:cc:
                    69:e2:af:7b:9c:be:63:c8:4d:47:ce:5a:68:c5:3b:
                    59:3b:a9:61:88:b4:84:ff:6b:e8:8f:b0:a2:e3:49:
                    4e:79:60:cb:84:56:27:e1:fd:cb:82:b6:aa:42:26:
                    27:e7:3d:96:56:0c:7b:52:36:1b:cd:b7:20:07:24:
                    55:ef:71:1a:b4:f2:85:dd:1a:be:60:e0:a9:fe:d9:
                    a1:c7:f5:f3:56:85:eb:ab:f2:11:59:3e:8d:cf:0f:
                    98:65:29:2e:30:7f:68:f7:79:4a:2a:2b:eb:50:40:
                    97:13:40:73:9a:5d:2d:f1:cd:5c:ad:8c:d2:cc:d6:
                    d3:bc:24:de:94:2c:4f:f5:d4:2c:95:8c:6a:4f:df:
                    c0:73:f1:5c:a9:ab:76:6f:ee:50:36:41:bf:cf:37:
                    91:b3:c3:0b:12:da:d1:a0:cc:53:cc:ad:dd:5c:45:
                    e5:3c:51:d5:21:74:f0:3e:fb:fb:0b:6a:6d:e5:08:
                    52:11:7b:91:08:db:53:ae:b2:62:bd:95:f1:73:4f:
                    b1:3e:fd:dd:72:3d:74:d6:f3:9f:90:ce:66:51:78:
                    90:63:f6:33:01:1f:82:23:e5:18:c4:37:47:16:1e:
                    05:80:8f:26:89:26:72:75:21:4f:5b:17:82:6a:bb:
                    bc:83:62:37:23:bf:68:e9:41:da:b8:9b:a7:6e:df:
                    8f:2f:b9:cb:fa:7d:4f:87:ca:e2:08:bd:5a:8f:45:
                    a5:3d:2e:d3:d0:a3:df:fc:05:62:25:28:e2:68:46:
                    05:40:48:31:55:df:a9:bf:67:9d:30:df:c7:bd:5e:
                    1e:f8:c9:15:3c:b7:61:70:e3:75:63:fa:72:21:f1:
                    60:3b:c4:3b:e4:0e:2c:b2:b6:44:b7:6f:eb:97:f8:
                    d0:07:54:cf:4b:f3:d5:d7:5d:6f:62:98:c0:0e:94:
                    38:e6:7c:de:59:e4:f8:e6:b0:50:7e:e8:0b:8f:09:
                    04:de:49:0e:63:9e:ab:90:54:5d:d2:50:79:ae:8e:
                    76:f1:f9:7d:ad:f6:3d:57:0a:d5:f9:65:1f:1a:22:
                    b3:c9:1a:cc:4e:76:0d:ab:a5:ee:2f:5d:01:bf:5d:
                    e8:75:78:43:d9:54:52:8e:74:b3:a9:1d:83:ee:c8:
                    41:35:59:c9:9f:c3:ab:28:5d:77:d3:29:d6:af:14:
                    c5:94:c1:ce:ef:35:85:e7:c8:be:8b:88:bf:33:e8:
                    09:9b:95:7d:59:14:ba:0b:0d:47:da:19:f2:46:15:
                    e1:b2:26:44:6d:18:5b:17:cd:6f:0e:14:0c:de:59:
                    e6:79:a9
                Exponent: 65537 (0x10001)
        X509v3 extensions:
            X509v3 Basic Constraints: 
                CA:FALSE
            X509v3 Extended Key Usage: 
                TLS Web Client Authentication
            Netscape Comment: 
                OpenSSL Generated Certificate
            X509v3 Subject Key Identifier: 
                5D:5E:EF:BE:EF:70:29:B3:2A:30:39:10:22:82:A3:BB:1E:6F:39:3B
            X509v3 Authority Key Identifier: 
                EA:87:3C:7D:2A:6A:C2:DF:1E:A5:8C:49:E8:73:12:86:7B:4B:F8:76
            X509v3 CRL Distribution Points: 
                Full Name:
                  URI:http://192.168.21.89/rootcrl.pem
    Signature Algorithm: sha1WithRSAEncryption
    Signature Value:
        19:c6:62:7b:95:da:d2:90:4a:e6:09:09:88:58:45:fe:82:0c:
        a6:9c:db:2b:bd:23:36:0d:6b:88:75:9b:21:37:28:2b:fd:28:
        76:0e:19:c0:ff:0c:da:4b:a1:01:50:62:59:e4:5b:b2:08:eb:
        e0:c0:fe:98:84:a9:1d:65:72:a5:0e:c7:52:08:16:dd:cc:7b:
        94:dc:77:91:4d:43:26:0a:bb:b2:be:d8:56:ad:0f:7b:43:e4:
        68:4e:91:37:a1:e4:4c:8c:0f:8c:1f:2a:66:a7:b1:92:54:54:
        ed:fd:12:f5:e0:ee:61:b9:6c:8a:29:59:69:02:cb:8c:c9:c2:
        90:20:9b:1c:5f:a3:95:63:8b:12:bc:2a:09:55:e0:c9:88:60:
        02:0f:00:9b:1e:dc:fb:19:9c:3d:c4:db:d7:ef:ca:1c:ab:53:
        68:2e:47:76:0c:de:7c:0e:e0:30:1b:d0:42:f9:cf:4b:9b:e0:
        e0:f8:58:18:1e:15:79:ad:10:fb:33:5d:77:67:81:23:e6:10:
        2c:18:62:0a:e1:a7:95:e4:73:e6:13:dd:02:8b:f3:e2:36:0c:
        9e:11:d7:f6:13:d7:0c:d7:9c:25:c0:03:f8:02:ed:65:75:45:
        1d:27:7b:86:14:ab:6b:c4:dc:85:a7:48:83:71:35:13:a1:2b:
        fa:ad:72:24:87:11:a2:56:48:51:dd:3a:b0:b1:0e:8a:3d:2c:
        fd:a2:5b:64:5f:f7:cd:90:1f:4b:34:ea:c2:6b:11:64:62:c5:
        fa:88:d3:3f:2b:17:91:cc:33:d3:57:82:a1:9d:12:6b:d7:3e:
        54:81:22:98:88:06:df:d7:c0:5b:91:c0:2a:79:90:64:a5:c5:
        29:82:b3:d8:d9:90:fd:d5:82:48:51:b5:80:8f:9f:01:98:c3:
        ef:f3:0b:ad:b3:15:57:6b:33:52:26:5f:0d:3d:e1:30:3a:cb:
        47:13:00:5c:6c:92:f9:69:39:6f:3f:73:5a:0f:f8:0b:1e:74:
        3d:86:c3:41:d5:98:e4:59:7a:2a:98:99:18:e3:63:ab:8d:62:
        4b:02:1f:f8:2b:ba:91:c0:71:f8:23:20:f7:d9:9b:95:c8:ee:
        ec:d8:83:af:f5:1c:b1:45:39:7c:f1:62:b4:3b:a2:96:92:9e:
        9e:1e:fa:d1:b1:0b:43:4d:61:bc:d2:7e:fa:c7:eb:3e:f1:2f:
        a5:18:f8:d6:3d:c1:5e:be:bd:87:16:f4:c3:6a:f1:90:e6:0c:
        60:c8:2a:4b:4b:d8:c8:8d:78:16:d2:60:9d:d3:60:1d:ff:8f:
        4e:2c:64:5f:51:69:93:76:c6:4a:6b:7f:1d:7c:98:a2:95:3a:
        eb:c3:08:e1:50:ba:99:83
-----BEGIN CERTIFICATE-----
MIIGEjCCA/qgAwIBAgIBAjANBgkqhkiG9w0BAQUFADBnMQswCQYDVQQGEwJCQTEL
MAkGA1UECBMCUlMxITAfBgNVBAoTGEVsZWt0cm90ZWhuaWNraSBmYWt1bHRldDEa
MBgGA1UECxQRQ0FfTWlsYW5hS25lemV2aWMxDDAKBgNVBAMTA0NBMjAeFw0yMjA0
MTQyMTU5MTZaFw0yMzA0MTQyMTU5MTZaMGsxCzAJBgNVBAYTAkJBMQswCQYDVQQI
EwJSUzEhMB8GA1UEChMYRWxla3Ryb3RlaG5pY2tpIGZha3VsdGV0MRowGAYDVQQL
FBFDQV9NaWxhbmFLbmV6ZXZpYzEQMA4GA1UEAxMHRGFsaWJvcjCCAiIwDQYJKoZI
hvcNAQEBBQADggIPADCCAgoCggIBAOIvxUTVaNUYRECLIPjulKk4LKesMaUF/Tl6
4lfMaeKve5y+Y8hNR85aaMU7WTupYYi0hP9r6I+wouNJTnlgy4RWJ+H9y4K2qkIm
J+c9llYMe1I2G823IAckVe9xGrTyhd0avmDgqf7Zocf181aF66vyEVk+jc8PmGUp
LjB/aPd5Sior61BAlxNAc5pdLfHNXK2M0szW07wk3pQsT/XULJWMak/fwHPxXKmr
dm/uUDZBv883kbPDCxLa0aDMU8yt3VxF5TxR1SF08D77+wtqbeUIUhF7kQjbU66y
Yr2V8XNPsT793XI9dNbzn5DOZlF4kGP2MwEfgiPlGMQ3RxYeBYCPJokmcnUhT1sX
gmq7vINiNyO/aOlB2ribp27fjy+5y/p9T4fK4gi9Wo9FpT0u09Cj3/wFYiUo4mhG
BUBIMVXfqb9nnTDfx71eHvjJFTy3YXDjdWP6ciHxYDvEO+QOLLK2RLdv65f40AdU
z0vz1dddb2KYwA6UOOZ83lnk+OawUH7oC48JBN5JDmOeq5BUXdJQea6OdvH5fa32
PVcK1fllHxois8kazE52Daul7i9dAb9d6HV4Q9lUUo50s6kdg+7IQTVZyZ/Dqyhd
d9Mp1q8UxZTBzu81hefIvouIvzPoCZuVfVkUugsNR9oZ8kYV4bImRG0YWxfNbw4U
DN5Z5nmpAgMBAAGjgcQwgcEwCQYDVR0TBAIwADATBgNVHSUEDDAKBggrBgEFBQcD
AjAsBglghkgBhvhCAQ0EHxYdT3BlblNTTCBHZW5lcmF0ZWQgQ2VydGlmaWNhdGUw
HQYDVR0OBBYEFF1e777vcCmzKjA5ECKCo7sebzk7MB8GA1UdIwQYMBaAFOqHPH0q
asLfHqWMSehzEoZ7S/h2MDEGA1UdHwQqMCgwJqAkoCKGIGh0dHA6Ly8xOTIuMTY4
LjIxLjg5L3Jvb3RjcmwucGVtMA0GCSqGSIb3DQEBBQUAA4ICAQAZxmJ7ldrSkErm
CQmIWEX+ggymnNsrvSM2DWuIdZshNygr/Sh2DhnA/wzaS6EBUGJZ5FuyCOvgwP6Y
hKkdZXKlDsdSCBbdzHuU3HeRTUMmCruyvthWrQ97Q+RoTpE3oeRMjA+MHypmp7GS
VFTt/RL14O5huWyKKVlpAsuMycKQIJscX6OVY4sSvCoJVeDJiGACDwCbHtz7GZw9
xNvX78ocq1NoLkd2DN58DuAwG9BC+c9Lm+Dg+FgYHhV5rRD7M113Z4Ej5hAsGGIK
4aeV5HPmE90Ci/PiNgyeEdf2E9cM15wlwAP4Au1ldUUdJ3uGFKtrxNyFp0iDcTUT
oSv6rXIkhxGiVkhR3TqwsQ6KPSz9oltkX/fNkB9LNOrCaxFkYsX6iNM/KxeRzDPT
V4KhnRJr1z5UgSKYiAbf18BbkcAqeZBkpcUpgrPY2ZD91YJIUbWAj58BmMPv8wut
sxVXazNSJl8NPeEwOstHEwBcbJL5aTlvP3NaD/gLHnQ9hsNB1ZjkWXoqmJkY42Or
jWJLAh/4K7qRwHH4IyD32ZuVyO7s2IOv9RyxRTl88WK0O6KWkp6eHvrRsQtDTWG8
0n76x+s+8S+lGPjWPcFevr2HFvTDavGQ5gxgyCpLS9jIjXgW0mCd02Ad/49OLGRf
UWmTdsZKa38dfJiilTrrwwjhULqZgw==
-----END CERTIFICATE-----
