Certificate:
    Data:
        Version: 3 (0x2)
        Serial Number: 6 (0x6)
        Signature Algorithm: sha1WithRSAEncryption
        Issuer: C=BA, ST=RS, O=Elektrotehnicki fakultet, OU=CA_MilanaKnezevic, CN=CA2
        Validity
            Not Before: Apr 15 18:02:05 2022 GMT
            Not After : Apr 15 18:02:05 2023 GMT
        Subject: C=BA, ST=RS, O=Elektrotehnicki fakultet, OU=CA_MilanaKnezevic, CN=Radenko
        Subject Public Key Info:
            Public Key Algorithm: rsaEncryption
                Public-Key: (4096 bit)
                Modulus:
                    00:b8:2a:5a:9b:a5:f8:69:68:cc:dc:01:c5:7a:c1:
                    ff:ec:52:3d:ce:b5:da:d8:e7:78:7d:b1:04:f9:ef:
                    0e:34:27:26:a7:39:d2:c8:13:9d:bc:39:da:80:85:
                    0b:2b:ba:d2:6a:96:c6:94:18:ba:d2:ee:0c:bc:ed:
                    44:23:ce:46:14:d7:77:cf:3c:42:39:6e:e7:ee:08:
                    b2:5d:0e:6f:0c:2c:ac:b2:6c:2f:4d:fa:0e:40:8f:
                    fe:0b:8c:78:5f:fe:17:75:ca:84:bd:02:9e:40:2c:
                    d7:fa:63:f8:2b:14:f1:b8:2d:fe:b0:4d:da:bf:ae:
                    bd:b4:bb:8d:2e:91:db:30:a4:66:c2:b7:65:a6:bb:
                    b6:f7:85:16:15:ea:e4:da:51:89:66:59:4e:2f:f6:
                    6a:fc:8d:18:7a:ba:ba:d7:c8:59:53:26:da:78:99:
                    1f:52:3a:bf:03:76:a4:42:58:ea:5f:d6:ab:60:b2:
                    9b:43:30:e4:ec:05:c8:b8:1a:2e:2c:71:8a:f2:42:
                    44:12:8b:1f:e0:32:c9:01:02:8e:af:1d:61:a1:18:
                    64:96:e5:42:81:8d:32:8b:00:6f:f7:5a:5c:ac:9d:
                    63:26:a9:f1:ec:f0:a8:43:b5:43:27:bf:5a:40:71:
                    bf:14:26:4a:1c:cb:8b:5b:80:7b:ba:ea:c7:15:8b:
                    f3:bf:26:48:ea:01:81:8f:4b:69:f1:36:2b:d5:b7:
                    f9:11:1d:5f:1c:5a:c9:3d:8b:38:37:af:23:6b:fa:
                    18:98:d1:35:e0:05:fc:62:f1:00:05:71:ed:44:95:
                    10:9a:5b:5b:87:5e:91:10:e1:99:72:9f:9d:c4:a1:
                    7f:59:90:9b:9b:fb:d0:e8:41:b9:15:9a:c0:fa:ba:
                    41:ba:88:d9:91:d5:f4:01:9b:76:16:01:13:d5:00:
                    d9:fa:4c:3d:99:bf:02:32:91:91:17:7a:38:27:f0:
                    f2:3b:e4:87:fe:42:86:2c:e2:49:6b:f1:4f:54:93:
                    af:35:94:b8:7e:e7:26:4b:67:29:67:14:a2:53:4e:
                    c3:7f:8c:c6:b6:17:91:46:08:6a:09:b2:48:c0:7f:
                    a1:9e:36:48:62:d9:9b:ac:7b:c1:6f:f3:e9:44:59:
                    b0:0e:64:ae:19:66:ed:d9:14:d1:d9:21:98:f5:dd:
                    fd:7c:08:bf:91:4f:0b:ee:ac:4d:1b:ef:71:0b:fe:
                    cc:8f:9f:d6:34:be:42:87:32:ab:1b:4a:cb:67:30:
                    16:cc:cc:00:83:62:1b:c5:39:d8:94:42:55:39:03:
                    48:a4:19:e5:ef:f1:b4:3a:af:41:e7:42:05:98:d3:
                    5b:72:a7:59:60:6a:f2:db:9c:f7:11:3f:00:0e:8e:
                    81:45:b9
                Exponent: 65537 (0x10001)
        X509v3 extensions:
            X509v3 Basic Constraints: 
                CA:FALSE
            X509v3 Extended Key Usage: 
                TLS Web Client Authentication
            Netscape Comment: 
                OpenSSL Generated Certificate
            X509v3 Subject Key Identifier: 
                FE:08:5F:35:2B:84:DC:1E:B5:DD:16:D6:C6:4A:42:8A:9A:1B:98:DC
            X509v3 Authority Key Identifier: 
                EA:87:3C:7D:2A:6A:C2:DF:1E:A5:8C:49:E8:73:12:86:7B:4B:F8:76
            X509v3 CRL Distribution Points: 
                Full Name:
                  URI:http://192.168.21.89/rootcrl.pem
    Signature Algorithm: sha1WithRSAEncryption
    Signature Value:
        2b:4c:2d:fe:be:f5:db:5d:f8:62:88:24:4e:ad:e1:61:1c:e7:
        39:41:57:4d:5c:7f:dd:23:85:70:6a:04:35:e5:d1:7f:12:3d:
        12:ba:6c:e6:7a:3e:4f:20:06:2d:8f:f2:34:fa:d5:d4:f9:ed:
        bf:7e:59:74:1f:0b:f8:79:a5:dc:c3:b6:95:01:f6:84:c7:44:
        e0:09:2c:e6:4c:77:81:2e:f6:18:3b:32:01:aa:45:94:54:07:
        76:62:9a:7c:ad:64:df:4e:e9:35:16:0a:51:43:fe:a4:95:26:
        4e:06:c5:4e:05:21:8a:35:f4:33:2c:dc:c4:f8:2e:03:20:20:
        50:9c:fa:73:6f:56:60:69:6c:48:3d:7c:1c:20:b8:b2:43:67:
        88:86:b2:45:01:3f:f7:89:75:b3:f6:3e:c0:b6:f9:25:d0:b9:
        ea:3b:fa:2f:ea:fc:0e:fa:ad:95:55:c8:7b:0c:06:27:da:2d:
        6d:83:88:c7:28:0a:d9:f0:5f:4b:aa:86:b0:af:fb:d6:49:d2:
        ca:ce:85:8a:36:ec:9a:4e:1b:e4:ff:23:ba:12:ad:84:61:73:
        85:0a:98:03:96:b9:8a:3e:40:10:f0:e1:1c:d0:e8:d8:6c:f1:
        aa:01:63:70:f6:85:5e:49:5c:32:7f:05:8b:d1:df:64:4b:1e:
        d3:64:9c:7c:fd:d4:75:53:7d:54:b7:08:ba:77:31:82:8f:86:
        3b:8c:5d:05:82:67:b3:b0:84:94:ea:c9:ef:11:6f:80:2b:20:
        4b:87:80:f8:62:77:6f:ec:8d:b0:0a:75:b0:a0:ce:91:72:c3:
        bc:07:88:b1:75:83:e3:0e:7f:fe:88:4e:d4:37:9f:22:6a:4b:
        9f:e9:79:80:87:36:50:f1:cc:b2:4b:98:e5:51:92:ad:0d:30:
        03:59:34:91:2e:72:36:1f:36:d1:6b:a4:d8:a8:b4:5f:90:77:
        2c:c1:ec:f8:4a:33:bb:85:44:67:37:32:af:6e:24:5e:69:03:
        de:d0:5e:d1:25:6f:92:6e:80:80:a3:57:a4:ba:f2:bf:31:a8:
        8e:29:13:08:76:fa:3e:19:d2:39:3c:d4:f5:8d:ea:e8:01:f9:
        9c:55:55:a5:7a:1f:f1:00:fa:a3:37:8c:82:e6:d0:dd:56:af:
        dd:75:ba:04:de:b7:5c:10:ac:3d:b2:ca:25:d1:7c:cd:00:61:
        26:47:f1:83:65:00:f0:c3:14:0f:b9:5b:8f:cf:17:ff:f3:69:
        68:2f:4d:8e:dc:32:8e:68:1a:c3:8a:0e:28:ec:3a:6b:66:fd:
        30:64:64:f5:83:ce:46:cf:dd:43:88:58:1a:8a:0e:19:77:1a:
        60:ae:41:ca:44:1c:a4:b3
-----BEGIN CERTIFICATE-----
MIIGEjCCA/qgAwIBAgIBBjANBgkqhkiG9w0BAQUFADBnMQswCQYDVQQGEwJCQTEL
MAkGA1UECBMCUlMxITAfBgNVBAoTGEVsZWt0cm90ZWhuaWNraSBmYWt1bHRldDEa
MBgGA1UECxQRQ0FfTWlsYW5hS25lemV2aWMxDDAKBgNVBAMTA0NBMjAeFw0yMjA0
MTUxODAyMDVaFw0yMzA0MTUxODAyMDVaMGsxCzAJBgNVBAYTAkJBMQswCQYDVQQI
EwJSUzEhMB8GA1UEChMYRWxla3Ryb3RlaG5pY2tpIGZha3VsdGV0MRowGAYDVQQL
FBFDQV9NaWxhbmFLbmV6ZXZpYzEQMA4GA1UEAxMHUmFkZW5rbzCCAiIwDQYJKoZI
hvcNAQEBBQADggIPADCCAgoCggIBALgqWpul+GlozNwBxXrB/+xSPc612tjneH2x
BPnvDjQnJqc50sgTnbw52oCFCyu60mqWxpQYutLuDLztRCPORhTXd888Qjlu5+4I
sl0ObwwsrLJsL036DkCP/guMeF/+F3XKhL0CnkAs1/pj+CsU8bgt/rBN2r+uvbS7
jS6R2zCkZsK3Zaa7tveFFhXq5NpRiWZZTi/2avyNGHq6utfIWVMm2niZH1I6vwN2
pEJY6l/Wq2Cym0Mw5OwFyLgaLixxivJCRBKLH+AyyQECjq8dYaEYZJblQoGNMosA
b/daXKydYyap8ezwqEO1Qye/WkBxvxQmShzLi1uAe7rqxxWL878mSOoBgY9LafE2
K9W3+REdXxxayT2LODevI2v6GJjRNeAF/GLxAAVx7USVEJpbW4dekRDhmXKfncSh
f1mQm5v70OhBuRWawPq6QbqI2ZHV9AGbdhYBE9UA2fpMPZm/AjKRkRd6OCfw8jvk
h/5ChiziSWvxT1STrzWUuH7nJktnKWcUolNOw3+MxrYXkUYIagmySMB/oZ42SGLZ
m6x7wW/z6URZsA5krhlm7dkU0dkhmPXd/XwIv5FPC+6sTRvvcQv+zI+f1jS+Qocy
qxtKy2cwFszMAINiG8U52JRCVTkDSKQZ5e/xtDqvQedCBZjTW3KnWWBq8tuc9xE/
AA6OgUW5AgMBAAGjgcQwgcEwCQYDVR0TBAIwADATBgNVHSUEDDAKBggrBgEFBQcD
AjAsBglghkgBhvhCAQ0EHxYdT3BlblNTTCBHZW5lcmF0ZWQgQ2VydGlmaWNhdGUw
HQYDVR0OBBYEFP4IXzUrhNwetd0W1sZKQoqaG5jcMB8GA1UdIwQYMBaAFOqHPH0q
asLfHqWMSehzEoZ7S/h2MDEGA1UdHwQqMCgwJqAkoCKGIGh0dHA6Ly8xOTIuMTY4
LjIxLjg5L3Jvb3RjcmwucGVtMA0GCSqGSIb3DQEBBQUAA4ICAQArTC3+vvXbXfhi
iCROreFhHOc5QVdNXH/dI4VwagQ15dF/Ej0Sumzmej5PIAYtj/I0+tXU+e2/fll0
Hwv4eaXcw7aVAfaEx0TgCSzmTHeBLvYYOzIBqkWUVAd2Ypp8rWTfTuk1FgpRQ/6k
lSZOBsVOBSGKNfQzLNzE+C4DICBQnPpzb1ZgaWxIPXwcILiyQ2eIhrJFAT/3iXWz
9j7Atvkl0LnqO/ov6vwO+q2VVch7DAYn2i1tg4jHKArZ8F9Lqoawr/vWSdLKzoWK
NuyaThvk/yO6Eq2EYXOFCpgDlrmKPkAQ8OEc0OjYbPGqAWNw9oVeSVwyfwWL0d9k
Sx7TZJx8/dR1U31Utwi6dzGCj4Y7jF0FgmezsISU6snvEW+AKyBLh4D4Yndv7I2w
CnWwoM6RcsO8B4ixdYPjDn/+iE7UN58iakuf6XmAhzZQ8cyyS5jlUZKtDTADWTSR
LnI2HzbRa6TYqLRfkHcswez4SjO7hURnNzKvbiReaQPe0F7RJW+SboCAo1ekuvK/
MaiOKRMIdvo+GdI5PNT1jeroAfmcVVWleh/xAPqjN4yC5tDdVq/ddboE3rdcEKw9
ssol0XzNAGEmR/GDZQDwwxQPuVuPzxf/82loL02O3DKOaBrDig4o7DprZv0wZGT1
g85Gz91DiFgaig4ZdxpgrkHKRByksw==
-----END CERTIFICATE-----
