Certificate:
    Data:
        Version: 3 (0x2)
        Serial Number: 7 (0x7)
        Signature Algorithm: sha1WithRSAEncryption
        Issuer: C=BA, ST=RS, O=Elektrotehnicki fakultet, OU=CA_MilanaKnezevic, CN=CA2
        Validity
            Not Before: Apr 15 19:22:28 2022 GMT
            Not After : Apr 15 19:22:28 2023 GMT
        Subject: C=BA, ST=RS, O=Elektrotehnicki fakultet, OU=CA_MilanaKnezevic, CN=kurac
        Subject Public Key Info:
            Public Key Algorithm: rsaEncryption
                Public-Key: (4096 bit)
                Modulus:
                    00:8f:7e:d1:d3:31:1a:e3:b9:87:59:27:f2:ad:2b:
                    f5:5f:6a:a8:7b:cb:aa:e8:0f:ee:40:08:de:67:3d:
                    dd:eb:db:00:26:82:e5:19:d9:f4:2c:f4:41:48:0a:
                    31:36:a2:23:3f:6a:79:37:62:09:59:f6:ba:c1:5c:
                    b8:c5:fb:96:b6:10:1c:b4:a7:a2:bd:f5:f5:cd:a8:
                    28:81:3d:97:e2:d0:59:2d:66:ea:37:c5:8b:4c:49:
                    4b:b1:6a:da:2a:15:11:d5:66:a6:57:f6:68:6f:70:
                    38:8d:d6:e7:29:11:a5:58:16:c3:76:8f:e9:29:80:
                    e5:a7:9b:68:c4:5c:11:e8:a7:f9:20:d8:bc:e7:6c:
                    08:20:cf:49:45:a4:70:5b:88:73:4c:af:f2:61:70:
                    b7:ae:74:70:b3:6f:90:52:c2:1f:02:56:a1:84:52:
                    00:31:7d:95:1c:3b:e1:eb:c5:d3:99:76:be:0d:dc:
                    76:a6:25:d4:e7:3b:0f:d4:cb:49:8e:a7:76:52:ef:
                    b5:04:a5:fe:8b:48:9b:30:29:19:4f:fd:b5:fd:2d:
                    eb:6d:44:ec:bd:78:bc:46:d9:94:dc:41:fa:c3:0c:
                    73:af:e0:c9:31:54:af:9f:44:c3:52:6a:d5:77:29:
                    7c:e0:27:ca:1f:4b:bc:c8:e6:cf:8b:0d:c0:1a:94:
                    20:ad:6b:a4:13:2e:f5:f8:c2:26:7b:55:56:31:d0:
                    ac:b5:fc:c3:64:55:6c:27:ff:45:d4:ee:18:74:2d:
                    23:33:fc:b7:14:b7:ed:55:ca:f8:6f:51:c1:5e:6a:
                    cb:76:e4:da:bc:44:44:3d:e5:d9:7b:6a:72:63:5d:
                    99:7c:ca:6a:71:1e:65:03:6c:01:26:29:e1:8c:82:
                    6b:77:33:1c:bc:fc:3c:c7:65:c2:68:d9:6e:46:a0:
                    41:5e:f4:69:71:57:b6:9c:4a:8e:8b:ab:e9:11:1b:
                    d0:ea:4b:fa:6a:e1:0b:c5:17:4d:7a:21:5e:66:dd:
                    3a:8a:7b:62:0e:ef:a2:3f:cc:d7:b6:21:07:13:cd:
                    14:30:07:2e:2f:28:e9:fe:e7:f4:a9:aa:66:48:61:
                    87:2d:dd:6a:57:3f:17:ba:2c:25:ff:f6:0c:4f:78:
                    e6:22:c6:34:bc:dc:3f:49:27:b8:f5:f3:06:d0:25:
                    b8:fe:da:6a:40:36:fb:bb:11:ed:e3:2e:14:5f:c7:
                    77:d0:a3:cc:38:f4:3b:05:c4:2f:b0:0d:2f:73:6a:
                    f0:75:b9:69:2a:5e:f6:90:d0:62:89:84:48:1d:42:
                    be:8d:ed:10:86:a0:2e:95:ab:e7:f4:14:3c:aa:db:
                    e7:78:46:98:14:5b:7b:ca:8a:79:4a:f9:13:6d:32:
                    f4:37:9b
                Exponent: 65537 (0x10001)
        X509v3 extensions:
            X509v3 Basic Constraints: 
                CA:FALSE
            X509v3 Extended Key Usage: 
                TLS Web Client Authentication
            Netscape Comment: 
                OpenSSL Generated Certificate
            X509v3 Subject Key Identifier: 
                CF:71:8A:F9:53:B0:1F:66:A5:20:9A:D2:8D:44:B3:93:67:AD:EC:17
            X509v3 Authority Key Identifier: 
                EA:87:3C:7D:2A:6A:C2:DF:1E:A5:8C:49:E8:73:12:86:7B:4B:F8:76
            X509v3 CRL Distribution Points: 
                Full Name:
                  URI:http://192.168.21.89/rootcrl.pem
    Signature Algorithm: sha1WithRSAEncryption
    Signature Value:
        67:93:e7:a3:04:2c:d3:1f:cc:ce:6d:56:2d:e2:47:84:6d:df:
        96:2b:c8:2a:ec:0e:79:6c:2e:6f:a1:14:9e:ee:38:94:38:06:
        eb:ea:ce:27:16:40:9a:60:0a:6d:14:99:28:34:a9:63:35:06:
        82:59:14:c8:01:9d:c7:38:a3:f9:a6:30:02:c2:e5:c4:d6:8c:
        87:1f:95:2a:bc:1f:f2:c0:f9:97:e0:a8:19:ce:2f:f3:93:6d:
        d3:0b:a2:2b:b5:89:59:ff:94:b3:18:54:6c:13:7f:14:9c:49:
        6a:43:82:12:f2:33:b8:61:4f:a4:df:4b:65:75:b1:76:41:ed:
        22:70:d6:17:f8:1f:44:4e:54:9b:e9:6c:01:81:52:30:f7:33:
        c9:12:34:71:de:18:88:74:9e:3e:be:4f:cb:32:21:c7:a6:06:
        a7:62:ff:c3:17:55:25:69:91:1e:aa:b4:7f:dd:89:ed:14:b5:
        6d:76:2e:4f:73:8c:18:b6:ae:db:24:a0:c0:8a:7e:1f:01:86:
        07:e6:d4:33:c0:03:48:49:1a:95:7a:ce:59:bd:bb:75:94:73:
        88:4b:40:e8:10:b8:35:cb:f7:0d:5f:41:3e:63:f2:d5:a6:ad:
        ee:bb:f3:98:61:32:cf:ce:6d:b3:d1:42:5d:c8:72:01:a1:97:
        f7:9c:72:3f:2b:28:1d:b5:e0:56:61:ce:96:ba:45:a0:85:d6:
        54:09:14:2e:78:86:f0:a1:3a:97:3f:7f:0b:3a:ce:e1:1f:79:
        5a:7d:0f:1b:26:37:a6:74:02:6f:cf:9a:be:b9:a7:7f:c4:38:
        f2:b3:eb:f2:b4:f0:90:e5:3c:4a:55:d4:25:8c:ec:54:f6:de:
        f4:d7:5d:df:65:5d:1f:1f:23:e6:68:42:c2:d4:02:0d:a9:9e:
        eb:26:bc:84:dd:86:82:f7:95:53:d8:0f:c0:93:24:0d:f8:2f:
        1f:4c:14:2d:74:53:d0:b7:13:43:98:bd:10:f1:9c:8a:8b:75:
        15:12:da:b5:92:86:77:21:fe:c8:e7:b2:91:55:fc:72:ac:5e:
        4c:f0:90:59:49:0a:b1:43:ab:d1:ec:9f:d8:b5:c3:e6:45:6d:
        b7:cb:d6:85:11:8e:65:d0:a1:30:23:82:76:0a:3c:1e:d0:cc:
        1d:36:7b:73:e3:a7:28:3f:6f:80:2e:bd:09:13:0d:5d:8d:c8:
        be:d7:97:ef:19:23:40:17:35:86:04:bb:9c:06:16:b7:24:4f:
        f8:35:b6:6c:34:67:95:cf:9f:28:35:2f:06:28:ca:28:af:42:
        24:7c:32:42:27:70:ff:67:f2:86:1a:58:d7:08:fd:00:ce:3c:
        c0:43:1d:aa:66:71:08:86
-----BEGIN CERTIFICATE-----
MIIGEDCCA/igAwIBAgIBBzANBgkqhkiG9w0BAQUFADBnMQswCQYDVQQGEwJCQTEL
MAkGA1UECBMCUlMxITAfBgNVBAoTGEVsZWt0cm90ZWhuaWNraSBmYWt1bHRldDEa
MBgGA1UECxQRQ0FfTWlsYW5hS25lemV2aWMxDDAKBgNVBAMTA0NBMjAeFw0yMjA0
MTUxOTIyMjhaFw0yMzA0MTUxOTIyMjhaMGkxCzAJBgNVBAYTAkJBMQswCQYDVQQI
EwJSUzEhMB8GA1UEChMYRWxla3Ryb3RlaG5pY2tpIGZha3VsdGV0MRowGAYDVQQL
FBFDQV9NaWxhbmFLbmV6ZXZpYzEOMAwGA1UEAxMFa3VyYWMwggIiMA0GCSqGSIb3
DQEBAQUAA4ICDwAwggIKAoICAQCPftHTMRrjuYdZJ/KtK/Vfaqh7y6roD+5ACN5n
Pd3r2wAmguUZ2fQs9EFICjE2oiM/ank3YglZ9rrBXLjF+5a2EBy0p6K99fXNqCiB
PZfi0FktZuo3xYtMSUuxatoqFRHVZqZX9mhvcDiN1ucpEaVYFsN2j+kpgOWnm2jE
XBHop/kg2LznbAggz0lFpHBbiHNMr/JhcLeudHCzb5BSwh8CVqGEUgAxfZUcO+Hr
xdOZdr4N3HamJdTnOw/Uy0mOp3ZS77UEpf6LSJswKRlP/bX9LettROy9eLxG2ZTc
QfrDDHOv4MkxVK+fRMNSatV3KXzgJ8ofS7zI5s+LDcAalCCta6QTLvX4wiZ7VVYx
0Ky1/MNkVWwn/0XU7hh0LSMz/LcUt+1VyvhvUcFeast25Nq8REQ95dl7anJjXZl8
ympxHmUDbAEmKeGMgmt3Mxy8/DzHZcJo2W5GoEFe9GlxV7acSo6Lq+kRG9DqS/pq
4QvFF016IV5m3TqKe2IO76I/zNe2IQcTzRQwBy4vKOn+5/SpqmZIYYct3WpXPxe6
LCX/9gxPeOYixjS83D9JJ7j18wbQJbj+2mpANvu7Ee3jLhRfx3fQo8w49DsFxC+w
DS9zavB1uWkqXvaQ0GKJhEgdQr6N7RCGoC6Vq+f0FDyq2+d4RpgUW3vKinlK+RNt
MvQ3mwIDAQABo4HEMIHBMAkGA1UdEwQCMAAwEwYDVR0lBAwwCgYIKwYBBQUHAwIw
LAYJYIZIAYb4QgENBB8WHU9wZW5TU0wgR2VuZXJhdGVkIENlcnRpZmljYXRlMB0G
A1UdDgQWBBTPcYr5U7AfZqUgmtKNRLOTZ63sFzAfBgNVHSMEGDAWgBTqhzx9KmrC
3x6ljEnocxKGe0v4djAxBgNVHR8EKjAoMCagJKAihiBodHRwOi8vMTkyLjE2OC4y
MS44OS9yb290Y3JsLnBlbTANBgkqhkiG9w0BAQUFAAOCAgEAZ5PnowQs0x/Mzm1W
LeJHhG3flivIKuwOeWwub6EUnu44lDgG6+rOJxZAmmAKbRSZKDSpYzUGglkUyAGd
xzij+aYwAsLlxNaMhx+VKrwf8sD5l+CoGc4v85Nt0wuiK7WJWf+UsxhUbBN/FJxJ
akOCEvIzuGFPpN9LZXWxdkHtInDWF/gfRE5Um+lsAYFSMPczyRI0cd4YiHSePr5P
yzIhx6YGp2L/wxdVJWmRHqq0f92J7RS1bXYuT3OMGLau2ySgwIp+HwGGB+bUM8AD
SEkalXrOWb27dZRziEtA6BC4Ncv3DV9BPmPy1aat7rvzmGEyz85ts9FCXchyAaGX
95xyPysoHbXgVmHOlrpFoIXWVAkULniG8KE6lz9/CzrO4R95Wn0PGyY3pnQCb8+a
vrmnf8Q48rPr8rTwkOU8SlXUJYzsVPbe9Ndd32VdHx8j5mhCwtQCDame6ya8hN2G
gveVU9gPwJMkDfgvH0wULXRT0LcTQ5i9EPGciot1FRLatZKGdyH+yOeykVX8cqxe
TPCQWUkKsUOr0eyf2LXD5kVtt8vWhRGOZdChMCOCdgo8HtDMHTZ7c+OnKD9vgC69
CRMNXY3IvteX7xkjQBc1hgS7nAYWtyRP+DW2bDRnlc+fKDUvBijKKK9CJHwyQidw
/2fyhhpY1wj9AM48wEMdqmZxCIY=
-----END CERTIFICATE-----
