Certificate:
    Data:
        Version: 3 (0x2)
        Serial Number: 8 (0x8)
        Signature Algorithm: sha1WithRSAEncryption
        Issuer: C=BA, ST=RS, O=Elektrotehnicki fakultet, OU=CA_MilanaKnezevic, CN=CA2
        Validity
            Not Before: Apr 16 10:28:04 2022 GMT
            Not After : Apr 16 10:28:04 2023 GMT
        Subject: C=BA, ST=RS, O=Elektrotehnicki fakultet, OU=CA_MilanaKnezevic, CN=username1
        Subject Public Key Info:
            Public Key Algorithm: rsaEncryption
                Public-Key: (4096 bit)
                Modulus:
                    00:f7:96:51:5c:c8:43:aa:59:68:a1:eb:1c:6f:b6:
                    c1:60:a3:68:90:02:7c:64:28:74:f2:fc:87:2e:fa:
                    ae:ea:a7:a0:70:ed:75:db:22:25:50:7b:8e:81:64:
                    4e:2b:2d:41:1a:87:5e:50:97:6c:93:e6:56:58:70:
                    c0:63:00:cb:44:de:2b:3d:2d:eb:0f:fb:d9:75:b2:
                    ea:9b:f1:80:5a:c1:1f:e8:e7:4b:8c:1d:33:a9:86:
                    1d:66:cd:bd:a7:ca:a8:ee:4c:7d:93:a5:49:25:74:
                    c6:a1:7d:0f:d8:c2:08:34:15:f5:df:d4:26:d4:f3:
                    c3:87:ee:51:d9:1d:3c:58:e2:69:5b:24:d1:a0:73:
                    5f:29:cd:1c:87:8c:19:0a:6a:02:60:f1:fa:84:f3:
                    55:4c:b5:27:a8:f0:5a:97:a0:f8:ed:d5:c8:9f:e3:
                    07:1a:07:f4:53:88:b1:d0:f2:bb:f8:46:e5:1b:b0:
                    32:46:c0:c2:a0:21:75:f8:02:7d:db:46:ab:2b:92:
                    dd:63:ce:53:65:34:93:74:bb:b6:c8:ba:a0:a6:be:
                    63:8a:bf:86:50:18:7b:80:1a:68:4c:91:7f:e5:e4:
                    2e:29:d9:82:22:61:a1:fd:48:4f:59:4e:a2:43:f8:
                    a1:d4:04:ea:3f:d9:fc:ca:39:5a:14:ca:d8:b8:1a:
                    a2:91:d4:44:40:dc:2b:76:83:9e:48:24:1a:50:6f:
                    cf:b1:53:73:68:e0:6d:2f:77:23:d3:63:5a:24:99:
                    c2:8a:8f:34:13:c5:d3:5b:d9:25:05:c1:b8:ec:31:
                    37:8d:fa:52:7a:c7:3b:b7:4a:a3:df:39:38:8e:97:
                    95:08:c0:f2:59:52:a7:18:3e:7d:4d:7d:e0:54:4f:
                    4e:65:bd:a2:fa:4d:b4:d9:39:b9:66:f0:0b:eb:27:
                    3f:f3:1a:85:97:eb:22:47:71:14:b2:bc:7d:11:d0:
                    7a:eb:72:f4:b8:b3:65:e3:ac:23:02:4a:3f:b0:e2:
                    85:17:bc:d6:8e:a4:4c:d3:d7:d4:a4:7b:5a:bb:e8:
                    54:cd:91:c1:ed:47:33:a9:ef:24:38:fd:d5:1b:d8:
                    89:5d:14:bb:8c:a0:df:04:ed:f0:b5:13:83:9e:59:
                    42:73:0c:5b:ee:92:2e:e2:9c:e0:a7:bd:73:61:b6:
                    0a:ec:b2:4f:5c:fd:09:a8:96:1a:b4:76:88:e7:0d:
                    cb:d5:ac:0e:30:89:dd:18:d2:6d:b6:6c:39:a0:ce:
                    1b:b9:0b:49:de:81:ab:4f:2f:d4:bd:f3:09:c8:a8:
                    12:8b:d6:e4:70:c8:84:2b:01:d0:c2:a2:4d:14:7e:
                    76:e1:1d:df:22:20:1a:55:3c:73:a1:47:e7:0f:22:
                    67:86:11
                Exponent: 65537 (0x10001)
        X509v3 extensions:
            X509v3 Basic Constraints: 
                CA:FALSE
            X509v3 Extended Key Usage: 
                TLS Web Client Authentication
            Netscape Comment: 
                OpenSSL Generated Certificate
            X509v3 Subject Key Identifier: 
                17:AA:2C:03:F5:D4:3B:09:F1:8E:5B:9A:B5:77:48:F7:D5:D8:63:FD
            X509v3 Authority Key Identifier: 
                EA:87:3C:7D:2A:6A:C2:DF:1E:A5:8C:49:E8:73:12:86:7B:4B:F8:76
            X509v3 CRL Distribution Points: 
                Full Name:
                  URI:http://192.168.21.89/rootcrl.pem
    Signature Algorithm: sha1WithRSAEncryption
    Signature Value:
        14:72:b1:ba:be:b2:b6:09:3a:d2:d8:59:73:8c:01:ff:8d:83:
        07:2c:41:08:04:eb:f6:73:ad:4c:5d:b6:5d:57:f7:e1:45:4e:
        0a:96:10:a9:2b:22:eb:ee:a6:05:85:3b:c3:e8:42:51:7b:4c:
        45:f4:8b:43:39:4c:53:af:cc:b6:fb:6d:66:cd:dd:fe:56:d8:
        9c:cd:d4:7e:3a:12:29:0b:1d:3e:3d:9a:41:6d:c4:e4:d1:bf:
        fc:7d:38:3f:a2:28:8c:7e:00:49:0b:39:a2:00:0e:41:af:28:
        e6:2d:bb:72:e0:7c:5b:97:d2:ec:3d:ba:21:4a:3e:e8:24:3c:
        2a:f5:7b:d6:40:c4:e2:47:86:d2:c5:51:2f:be:26:6b:00:10:
        9e:63:61:15:7b:3b:22:2a:87:d0:40:d0:4c:88:0a:86:6c:44:
        63:58:01:e0:2a:2d:65:bb:bb:b2:24:37:67:eb:ff:15:7d:cc:
        00:ad:08:44:e0:8b:f4:ae:b6:01:2e:0d:35:0d:04:6a:ef:da:
        f6:14:cc:01:8a:9b:c2:bc:90:aa:82:74:74:00:8e:d1:f2:ce:
        e1:0e:6f:af:b1:18:5d:44:b8:99:82:d7:e4:04:3d:26:bd:fb:
        38:2b:c5:61:13:46:60:10:87:76:6c:9e:83:21:63:11:73:b1:
        a1:a0:1a:d1:9d:8a:52:15:16:59:68:96:57:b7:97:de:f2:3d:
        18:21:41:86:b8:b5:2b:9a:48:5f:c5:f5:90:dc:d0:41:9c:2a:
        b7:c3:31:d2:5e:fd:6f:a6:a6:91:0b:a2:e3:f4:29:10:1d:ea:
        8c:31:d0:1c:8f:6a:4a:52:22:2d:e0:5c:e4:ea:0c:3e:fc:f4:
        38:a7:7e:39:bb:5e:e3:0f:05:e2:94:56:87:25:e5:63:31:38:
        f0:bd:d6:45:6d:f8:f4:75:06:57:00:08:58:24:c0:48:89:e0:
        ed:81:51:2f:6e:37:27:05:22:00:d1:4b:7e:a4:48:0b:08:b1:
        90:37:e1:3f:15:ae:e6:01:21:0e:ed:a0:4e:db:48:70:7b:32:
        1d:73:81:76:2b:96:37:b6:09:ee:b1:76:fd:ef:7b:4d:9e:4e:
        1c:b2:00:65:17:68:4f:95:be:a0:4d:aa:50:3e:57:6a:49:df:
        e7:34:23:93:dd:61:0b:f0:7d:f6:88:48:07:d7:d6:c3:8f:2e:
        79:fa:d9:56:6e:5e:5b:22:50:98:ca:b7:04:18:a5:e0:9a:68:
        62:be:63:19:e7:3d:03:e6:99:a7:df:b3:1e:7e:4c:0a:9a:e2:
        c7:ac:eb:73:e2:95:75:40:de:40:5a:52:57:27:c0:98:55:be:
        84:d7:2b:03:36:07:99:89
-----BEGIN CERTIFICATE-----
MIIGFDCCA/ygAwIBAgIBCDANBgkqhkiG9w0BAQUFADBnMQswCQYDVQQGEwJCQTEL
MAkGA1UECBMCUlMxITAfBgNVBAoTGEVsZWt0cm90ZWhuaWNraSBmYWt1bHRldDEa
MBgGA1UECxQRQ0FfTWlsYW5hS25lemV2aWMxDDAKBgNVBAMTA0NBMjAeFw0yMjA0
MTYxMDI4MDRaFw0yMzA0MTYxMDI4MDRaMG0xCzAJBgNVBAYTAkJBMQswCQYDVQQI
EwJSUzEhMB8GA1UEChMYRWxla3Ryb3RlaG5pY2tpIGZha3VsdGV0MRowGAYDVQQL
FBFDQV9NaWxhbmFLbmV6ZXZpYzESMBAGA1UEAxMJdXNlcm5hbWUxMIICIjANBgkq
hkiG9w0BAQEFAAOCAg8AMIICCgKCAgEA95ZRXMhDqllooescb7bBYKNokAJ8ZCh0
8vyHLvqu6qegcO112yIlUHuOgWROKy1BGodeUJdsk+ZWWHDAYwDLRN4rPS3rD/vZ
dbLqm/GAWsEf6OdLjB0zqYYdZs29p8qo7kx9k6VJJXTGoX0P2MIINBX139Qm1PPD
h+5R2R08WOJpWyTRoHNfKc0ch4wZCmoCYPH6hPNVTLUnqPBal6D47dXIn+MHGgf0
U4ix0PK7+EblG7AyRsDCoCF1+AJ920arK5LdY85TZTSTdLu2yLqgpr5jir+GUBh7
gBpoTJF/5eQuKdmCImGh/UhPWU6iQ/ih1ATqP9n8yjlaFMrYuBqikdREQNwrdoOe
SCQaUG/PsVNzaOBtL3cj02NaJJnCio80E8XTW9klBcG47DE3jfpSesc7t0qj3zk4
jpeVCMDyWVKnGD59TX3gVE9OZb2i+k202Tm5ZvAL6yc/8xqFl+siR3EUsrx9EdB6
63L0uLNl46wjAko/sOKFF7zWjqRM09fUpHtau+hUzZHB7Uczqe8kOP3VG9iJXRS7
jKDfBO3wtRODnllCcwxb7pIu4pzgp71zYbYK7LJPXP0JqJYatHaI5w3L1awOMInd
GNJttmw5oM4buQtJ3oGrTy/UvfMJyKgSi9bkcMiEKwHQwqJNFH524R3fIiAaVTxz
oUfnDyJnhhECAwEAAaOBxDCBwTAJBgNVHRMEAjAAMBMGA1UdJQQMMAoGCCsGAQUF
BwMCMCwGCWCGSAGG+EIBDQQfFh1PcGVuU1NMIEdlbmVyYXRlZCBDZXJ0aWZpY2F0
ZTAdBgNVHQ4EFgQUF6osA/XUOwnxjluatXdI99XYY/0wHwYDVR0jBBgwFoAU6oc8
fSpqwt8epYxJ6HMShntL+HYwMQYDVR0fBCowKDAmoCSgIoYgaHR0cDovLzE5Mi4x
NjguMjEuODkvcm9vdGNybC5wZW0wDQYJKoZIhvcNAQEFBQADggIBABRysbq+srYJ
OtLYWXOMAf+NgwcsQQgE6/ZzrUxdtl1X9+FFTgqWEKkrIuvupgWFO8PoQlF7TEX0
i0M5TFOvzLb7bWbN3f5W2JzN1H46EikLHT49mkFtxOTRv/x9OD+iKIx+AEkLOaIA
DkGvKOYtu3LgfFuX0uw9uiFKPugkPCr1e9ZAxOJHhtLFUS++JmsAEJ5jYRV7OyIq
h9BA0EyICoZsRGNYAeAqLWW7u7IkN2fr/xV9zACtCETgi/SutgEuDTUNBGrv2vYU
zAGKm8K8kKqCdHQAjtHyzuEOb6+xGF1EuJmC1+QEPSa9+zgrxWETRmAQh3ZsnoMh
YxFzsaGgGtGdilIVFllolle3l97yPRghQYa4tSuaSF/F9ZDc0EGcKrfDMdJe/W+m
ppELouP0KRAd6owx0ByPakpSIi3gXOTqDD789Dinfjm7XuMPBeKUVocl5WMxOPC9
1kVt+PR1BlcACFgkwEiJ4O2BUS9uNycFIgDRS36kSAsIsZA34T8VruYBIQ7toE7b
SHB7Mh1zgXYrlje2Ce6xdv3ve02eThyyAGUXaE+VvqBNqlA+V2pJ3+c0I5PdYQvw
ffaISAfX1sOPLnn62VZuXlsiUJjKtwQYpeCaaGK+YxnnPQPmmaffsx5+TAqa4ses
63PilXVA3kBaUlcnwJhVvoTXKwM2B5mJ
-----END CERTIFICATE-----
