Certificate:
    Data:
        Version: 3 (0x2)
        Serial Number: 9 (0x9)
        Signature Algorithm: sha1WithRSAEncryption
        Issuer: C=BA, ST=RS, O=Elektrotehnicki fakultet, OU=CA_MilanaKnezevic, CN=CA2
        Validity
            Not Before: Apr 16 14:06:50 2022 GMT
            Not After : Apr 16 14:06:50 2023 GMT
        Subject: C=BA, ST=RS, O=Elektrotehnicki fakultet, OU=CA_MilanaKnezevic, CN=Milorad
        Subject Public Key Info:
            Public Key Algorithm: rsaEncryption
                Public-Key: (4096 bit)
                Modulus:
                    00:b8:24:4d:a5:be:9e:e6:5d:a1:f5:0c:a7:56:d5:
                    e1:02:98:c3:a4:4c:9f:c4:13:c8:db:e8:37:d1:08:
                    a5:d6:11:2f:03:c4:b3:36:3a:ea:14:b8:fa:1c:0f:
                    9a:23:e1:35:58:e8:3d:91:7d:34:99:e5:49:56:71:
                    19:20:40:2f:e4:58:3d:97:6a:7a:94:ed:52:36:e4:
                    fe:31:3f:42:00:45:9f:3b:df:ed:eb:b5:10:b2:b4:
                    50:de:d3:a9:d6:f0:af:b0:9e:bf:e8:42:13:89:e1:
                    25:b0:68:8a:e5:78:48:53:c9:c0:02:99:91:e9:d7:
                    e3:05:a5:78:91:e6:99:06:9b:dd:2b:e1:eb:ea:69:
                    19:36:d9:8d:43:65:fa:63:f4:7a:6a:04:fc:52:dd:
                    76:42:5d:d9:34:9d:2c:6c:9d:7b:bf:1b:71:70:04:
                    c4:4c:b3:b6:15:c5:47:1f:74:d5:41:03:a3:11:fb:
                    7c:c0:b3:1e:85:7c:f3:ea:3a:2a:46:9f:95:dd:e1:
                    14:0b:e6:2b:8d:26:04:55:30:0a:16:53:63:61:63:
                    66:4e:86:c2:0a:2e:3c:a7:d6:4b:2f:cd:2e:36:f9:
                    8a:b5:fc:bd:8c:7c:6a:67:30:28:eb:d7:50:1d:be:
                    b7:c9:d8:b7:33:06:4d:61:1a:91:77:75:5a:d5:6e:
                    a1:61:e3:ba:09:5c:32:1b:6f:b9:77:c5:38:19:af:
                    45:58:1f:52:76:a5:d3:46:33:00:73:58:c5:b3:c7:
                    ba:e9:41:5d:fc:aa:ae:42:88:33:3d:11:60:66:54:
                    68:18:10:77:a6:f6:a1:70:35:19:9d:7b:8d:3b:ff:
                    41:4c:c1:82:92:af:43:18:7f:81:0d:94:11:c7:95:
                    2b:e6:f0:78:bb:53:47:5b:66:30:af:8d:bf:9b:2e:
                    a4:aa:55:00:de:e2:d3:ed:55:e1:0d:fa:3e:d2:72:
                    7a:2e:26:30:06:60:f8:98:68:ea:8e:87:8a:3d:e8:
                    a1:fc:84:4c:e5:f3:f1:a2:76:c2:e3:80:7b:33:55:
                    a4:3d:3c:42:44:da:17:4e:11:72:30:00:0d:76:81:
                    ec:19:d4:b5:26:a0:05:e5:1a:a0:91:95:6d:2e:b3:
                    be:3a:37:55:04:a3:20:35:43:8a:5d:17:03:69:c6:
                    26:82:fc:ca:dc:a8:a5:58:f5:72:44:5d:07:e3:dd:
                    e5:ef:16:f1:96:8a:2d:e7:19:37:d2:ae:de:85:e6:
                    fd:90:72:72:59:c4:0d:a2:18:9d:24:51:52:d5:56:
                    7a:4a:8c:2c:5c:62:c8:52:6d:ae:35:79:68:3a:7f:
                    94:7f:44:2a:0f:b5:3a:7c:6a:50:18:76:5d:5b:fc:
                    1f:c3:6b
                Exponent: 65537 (0x10001)
        X509v3 extensions:
            X509v3 Basic Constraints: 
                CA:FALSE
            X509v3 Extended Key Usage: 
                TLS Web Client Authentication
            Netscape Comment: 
                OpenSSL Generated Certificate
            X509v3 Subject Key Identifier: 
                76:6D:3B:29:03:8E:C4:F6:DA:82:9D:BA:BB:7B:B8:40:BD:92:E0:07
            X509v3 Authority Key Identifier: 
                EA:87:3C:7D:2A:6A:C2:DF:1E:A5:8C:49:E8:73:12:86:7B:4B:F8:76
            X509v3 CRL Distribution Points: 
                Full Name:
                  URI:http://192.168.21.89/rootcrl.pem
    Signature Algorithm: sha1WithRSAEncryption
    Signature Value:
        4b:5d:aa:db:47:9d:3e:34:aa:32:7b:0c:08:35:c2:0a:de:6f:
        dd:e7:84:fc:1c:cd:3c:89:3e:49:e3:f1:dd:13:b2:63:28:b4:
        0e:9a:bf:a9:39:f6:00:e4:f6:9a:af:c1:c4:46:0f:76:fd:a2:
        c3:b3:a2:41:d3:78:1d:65:5f:a3:d1:fd:81:e0:c2:3c:08:01:
        61:a9:df:4e:c5:8e:3f:cc:9f:a6:70:c9:90:c4:dc:8d:34:8b:
        3a:ab:26:03:7f:83:dd:fd:c3:18:d7:12:36:68:8f:e1:d6:f5:
        16:3e:00:24:a3:1f:ad:db:23:8c:37:ed:0a:6c:60:25:de:f8:
        48:c7:a9:6c:0b:d1:de:3e:89:e3:b3:7c:d2:00:98:f8:78:fe:
        14:6f:c3:95:c0:f9:cc:dd:2c:55:a8:0f:54:22:2d:34:ff:e4:
        25:06:a9:a2:10:56:bf:7f:80:aa:29:37:3f:c1:7b:e4:62:39:
        15:42:c4:38:4b:49:bf:e9:5e:74:d0:2c:36:a4:31:6b:e9:11:
        d1:50:1a:67:89:2d:5a:c9:ca:b2:c4:f7:93:69:2a:cc:fd:30:
        c5:2b:84:ea:52:8f:4f:70:05:b1:34:f2:36:9e:3b:c4:4a:e3:
        a4:b4:40:bb:69:d6:04:14:40:36:92:b8:c3:a6:bc:c0:2d:8d:
        d2:e6:ad:8d:fb:dc:6d:3d:e8:7c:ba:15:d4:a9:b3:89:e9:5d:
        ff:98:fb:41:ff:5f:39:80:fe:1f:63:20:dc:a0:cc:1e:f3:2a:
        2c:81:31:e8:a9:f0:fe:18:dc:b4:9a:f0:20:d3:15:7b:9e:e3:
        50:6b:ba:42:a8:a0:9c:d5:52:83:87:aa:13:de:66:ed:a7:f9:
        e4:f8:72:3d:65:8c:87:38:94:a5:33:36:05:d8:91:31:6b:be:
        00:44:7a:67:69:24:ec:f0:e7:94:0d:b3:db:e3:2b:c8:da:b5:
        4e:2f:99:83:04:b6:6d:a7:f2:7e:27:3a:95:e3:b4:71:cd:22:
        0a:6b:57:2c:c7:6d:c1:c8:f6:29:76:e9:15:2e:47:67:d8:5e:
        9e:27:65:ff:b6:40:b9:c8:3e:33:f1:23:77:10:06:89:3d:6a:
        90:6a:55:5d:4e:1d:56:c6:42:3c:9e:91:70:81:29:75:db:a2:
        f6:3f:f9:a0:d1:fe:5f:c9:57:d5:19:bc:54:ad:9d:69:f7:54:
        b9:5b:76:59:b5:8b:09:66:38:b5:ef:db:72:85:a9:73:42:96:
        f3:02:fe:c3:7c:b4:84:42:cc:ce:fb:1f:a7:f6:cf:90:c0:57:
        4f:61:96:1f:53:42:06:4c:f5:e4:9b:67:ee:43:62:55:1f:4c:
        15:f7:d7:5e:52:14:a3:aa
-----BEGIN CERTIFICATE-----
MIIGEjCCA/qgAwIBAgIBCTANBgkqhkiG9w0BAQUFADBnMQswCQYDVQQGEwJCQTEL
MAkGA1UECBMCUlMxITAfBgNVBAoTGEVsZWt0cm90ZWhuaWNraSBmYWt1bHRldDEa
MBgGA1UECxQRQ0FfTWlsYW5hS25lemV2aWMxDDAKBgNVBAMTA0NBMjAeFw0yMjA0
MTYxNDA2NTBaFw0yMzA0MTYxNDA2NTBaMGsxCzAJBgNVBAYTAkJBMQswCQYDVQQI
EwJSUzEhMB8GA1UEChMYRWxla3Ryb3RlaG5pY2tpIGZha3VsdGV0MRowGAYDVQQL
FBFDQV9NaWxhbmFLbmV6ZXZpYzEQMA4GA1UEAxMHTWlsb3JhZDCCAiIwDQYJKoZI
hvcNAQEBBQADggIPADCCAgoCggIBALgkTaW+nuZdofUMp1bV4QKYw6RMn8QTyNvo
N9EIpdYRLwPEszY66hS4+hwPmiPhNVjoPZF9NJnlSVZxGSBAL+RYPZdqepTtUjbk
/jE/QgBFnzvf7eu1ELK0UN7Tqdbwr7Cev+hCE4nhJbBoiuV4SFPJwAKZkenX4wWl
eJHmmQab3Svh6+ppGTbZjUNl+mP0emoE/FLddkJd2TSdLGyde78bcXAExEyzthXF
Rx901UEDoxH7fMCzHoV88+o6Kkafld3hFAvmK40mBFUwChZTY2FjZk6GwgouPKfW
Sy/NLjb5irX8vYx8amcwKOvXUB2+t8nYtzMGTWEakXd1WtVuoWHjuglcMhtvuXfF
OBmvRVgfUnal00YzAHNYxbPHuulBXfyqrkKIMz0RYGZUaBgQd6b2oXA1GZ17jTv/
QUzBgpKvQxh/gQ2UEceVK+bweLtTR1tmMK+Nv5supKpVAN7i0+1V4Q36PtJyei4m
MAZg+Jho6o6Hij3oofyETOXz8aJ2wuOAezNVpD08QkTaF04RcjAADXaB7BnUtSag
BeUaoJGVbS6zvjo3VQSjIDVDil0XA2nGJoL8ytyopVj1ckRdB+Pd5e8W8ZaKLecZ
N9Ku3oXm/ZByclnEDaIYnSRRUtVWekqMLFxiyFJtrjV5aDp/lH9EKg+1OnxqUBh2
XVv8H8NrAgMBAAGjgcQwgcEwCQYDVR0TBAIwADATBgNVHSUEDDAKBggrBgEFBQcD
AjAsBglghkgBhvhCAQ0EHxYdT3BlblNTTCBHZW5lcmF0ZWQgQ2VydGlmaWNhdGUw
HQYDVR0OBBYEFHZtOykDjsT22oKdurt7uEC9kuAHMB8GA1UdIwQYMBaAFOqHPH0q
asLfHqWMSehzEoZ7S/h2MDEGA1UdHwQqMCgwJqAkoCKGIGh0dHA6Ly8xOTIuMTY4
LjIxLjg5L3Jvb3RjcmwucGVtMA0GCSqGSIb3DQEBBQUAA4ICAQBLXarbR50+NKoy
ewwINcIK3m/d54T8HM08iT5J4/HdE7JjKLQOmr+pOfYA5Paar8HERg92/aLDs6JB
03gdZV+j0f2B4MI8CAFhqd9OxY4/zJ+mcMmQxNyNNIs6qyYDf4Pd/cMY1xI2aI/h
1vUWPgAkox+t2yOMN+0KbGAl3vhIx6lsC9HePonjs3zSAJj4eP4Ub8OVwPnM3SxV
qA9UIi00/+QlBqmiEFa/f4CqKTc/wXvkYjkVQsQ4S0m/6V500Cw2pDFr6RHRUBpn
iS1aycqyxPeTaSrM/TDFK4TqUo9PcAWxNPI2njvESuOktEC7adYEFEA2krjDprzA
LY3S5q2N+9xtPeh8uhXUqbOJ6V3/mPtB/185gP4fYyDcoMwe8yosgTHoqfD+GNy0
mvAg0xV7nuNQa7pCqKCc1VKDh6oT3mbtp/nk+HI9ZYyHOJSlMzYF2JExa74ARHpn
aSTs8OeUDbPb4yvI2rVOL5mDBLZtp/J+JzqV47RxzSIKa1csx23ByPYpdukVLkdn
2F6eJ2X/tkC5yD4z8SN3EAaJPWqQalVdTh1WxkI8npFwgSl126L2P/mg0f5fyVfV
GbxUrZ1p91S5W3ZZtYsJZji179tyhalzQpbzAv7DfLSEQszO+x+n9s+QwFdPYZYf
U0IGTPXkm2fuQ2JVH0wV99deUhSjqg==
-----END CERTIFICATE-----
