Certificate:
    Data:
        Version: 3 (0x2)
        Serial Number: 4 (0x4)
        Signature Algorithm: sha1WithRSAEncryption
        Issuer: C=BA, ST=RS, O=Elektrotehnicki fakultet, OU=CA_MilanaKnezevic, CN=CA1
        Validity
            Not Before: Apr 14 22:01:19 2022 GMT
            Not After : Apr 14 22:01:19 2023 GMT
        Subject: C=BA, ST=RS, O=Elektrotehnicki fakultet, OU=CA_MilanaKnezevic, CN=Andrea
        Subject Public Key Info:
            Public Key Algorithm: rsaEncryption
                Public-Key: (4096 bit)
                Modulus:
                    00:98:0b:4b:fd:35:c6:57:ec:3f:72:b8:07:7d:83:
                    46:37:76:e4:ca:1c:5c:6d:97:f0:6e:fe:f7:86:97:
                    df:70:ca:e3:b5:80:2e:01:af:47:3c:fd:22:7e:52:
                    a0:63:92:ce:6b:fd:06:0a:67:e1:99:78:a9:9e:80:
                    49:a2:d8:48:dc:1e:25:16:dd:1c:e9:57:c1:47:fd:
                    60:3b:9e:79:ce:00:3f:af:65:eb:40:a0:65:32:80:
                    af:c9:11:3d:3b:b9:38:9d:0f:c2:c5:9d:b7:99:d7:
                    f8:a0:eb:1c:7f:a6:fa:7b:cc:27:f2:6e:7a:ef:a7:
                    dc:bd:6a:c7:c7:08:eb:38:cb:cf:08:91:13:3d:8c:
                    12:ce:8b:5d:7e:c5:00:41:f5:7a:da:aa:23:3f:aa:
                    fd:1d:ca:4c:92:d1:c7:a7:3f:be:e0:71:5e:ff:8f:
                    39:e2:26:7b:55:2e:88:22:3a:4e:a1:7e:fb:34:cf:
                    ba:62:5b:0a:a7:bd:29:36:c6:ca:c1:29:97:7e:34:
                    b4:01:3a:d5:2c:8c:ed:83:56:5b:68:23:51:73:3e:
                    d0:3c:a9:b5:5f:9d:38:77:c0:4e:ee:57:a3:f4:75:
                    2f:c7:43:fc:e4:c7:82:7d:36:f9:77:12:f2:ca:bf:
                    3a:85:29:b3:fb:00:7d:fc:22:50:cc:b0:ee:fd:f9:
                    e1:ad:5b:85:cf:82:79:76:9d:67:45:42:a4:ab:7f:
                    bb:78:5e:6a:81:30:2a:40:ff:1b:fe:a5:b8:be:88:
                    a0:58:b7:ae:d8:3d:28:41:1d:66:f1:7e:1b:10:7d:
                    e5:5c:70:ee:b8:4b:7d:d8:f5:08:3e:7d:e2:b0:50:
                    d3:12:1a:3b:20:93:bb:ba:e5:13:a4:3b:2c:6f:ef:
                    14:aa:91:97:bb:59:b9:cd:2b:80:be:de:4c:52:c1:
                    e3:f6:cf:09:1c:a5:fe:a4:cc:c6:52:73:ff:fc:60:
                    05:29:73:32:39:db:3a:c8:bc:0a:e0:50:f5:0e:3c:
                    06:78:f2:4f:97:f1:c9:70:98:c4:05:16:16:dc:4e:
                    9e:40:1c:3f:ff:ce:9a:96:c2:0f:3e:25:20:3c:c7:
                    34:be:23:ac:41:99:36:73:c4:26:7a:e0:de:d3:c9:
                    58:92:25:98:eb:15:5a:3e:45:b3:9f:11:29:aa:2a:
                    df:75:ee:a3:d5:d1:c7:bf:cf:80:61:51:0c:71:a7:
                    45:d4:07:af:b3:be:be:33:3c:4b:b6:68:14:34:8e:
                    bd:a2:a2:2c:5e:aa:81:0c:a6:2f:17:a3:57:93:8e:
                    0a:f8:8a:f0:11:70:62:46:78:42:ad:65:d6:ef:e9:
                    56:4d:3d:2b:39:b1:ef:bb:ea:13:07:74:83:c1:fb:
                    88:c2:71
                Exponent: 65537 (0x10001)
        X509v3 extensions:
            X509v3 Basic Constraints: 
                CA:FALSE
            X509v3 Extended Key Usage: 
                TLS Web Client Authentication
            Netscape Comment: 
                OpenSSL Generated Certificate
            X509v3 Subject Key Identifier: 
                42:23:A8:CD:49:0E:F8:19:3B:41:55:AE:A0:5F:AE:B5:B8:F2:DD:FE
            X509v3 Authority Key Identifier: 
                E1:D2:3B:37:D4:03:84:E5:D8:BA:BB:42:3E:F6:A3:88:0A:05:25:1A
            X509v3 CRL Distribution Points: 
                Full Name:
                  URI:http://192.168.21.89/rootcrl.pem
    Signature Algorithm: sha1WithRSAEncryption
    Signature Value:
        68:8b:14:ea:20:29:f4:32:d1:0a:57:3e:c9:07:1a:40:08:9e:
        fc:f1:d7:84:df:08:a9:c5:da:49:89:53:b9:13:d8:ea:7d:92:
        9a:cf:33:ed:aa:2f:40:55:e6:6c:7d:96:9e:7b:9c:c6:cb:98:
        8d:d2:f7:26:ee:79:6d:26:2d:5f:cc:d7:77:77:a2:9f:75:50:
        6e:3f:11:2e:39:46:60:65:10:d0:fa:7b:05:1e:90:f1:f1:f0:
        79:15:48:37:ce:62:de:80:e0:84:4e:ce:04:c3:dd:77:5f:41:
        d4:85:c1:d6:3c:38:69:73:2d:56:4a:08:e0:82:e4:b6:97:11:
        2e:b3:a9:31:4b:17:df:93:e5:2c:3f:78:d3:5e:5e:a6:93:6a:
        ca:3f:92:bd:d1:ee:87:bd:6e:b4:80:75:0e:b7:9b:44:20:a4:
        b5:cf:35:d7:f1:bf:de:99:1a:b0:49:fe:37:dd:00:bc:57:3b:
        c5:56:9b:4c:7b:ab:0c:5b:e3:a7:cf:fc:e4:a7:34:2e:3f:aa:
        63:c8:fc:02:5b:5b:fe:59:5f:78:17:58:29:bb:ff:a3:52:a6:
        ee:3e:ed:c8:65:37:22:55:1e:f3:e4:80:4c:bb:37:ba:da:4d:
        09:d4:bb:0d:20:01:26:ef:93:87:87:5a:71:16:94:58:b3:c4:
        5c:ea:f2:3a:89:52:41:29:30:ac:24:f4:1a:29:7c:12:b4:07:
        b9:4a:20:28:81:f2:5d:0c:ae:35:9e:9b:6b:66:91:74:84:f4:
        a6:e5:a0:4e:59:ee:56:a1:12:22:94:68:c6:3a:98:d7:4f:ac:
        fe:d1:f5:40:36:65:bd:f5:df:6e:be:e8:ec:d6:dd:95:3f:84:
        3f:c2:d4:2e:db:17:27:72:c6:65:93:1b:59:18:90:31:8e:f4:
        89:ed:10:7b:45:d5:55:db:c1:a4:7a:a3:c9:ae:7c:70:c0:47:
        e2:9f:8b:78:cc:dc:1d:f5:fd:99:11:4b:1f:64:36:38:89:61:
        c2:f8:bd:09:1a:06:fe:df:f7:01:f1:24:0d:e3:b5:88:5f:cf:
        4c:d3:75:bf:dd:5e:c1:e5:c6:b3:48:2f:d2:d5:e4:21:73:ea:
        d8:44:46:15:f8:78:47:21:63:37:b5:ad:67:43:b2:4c:1c:f4:
        cb:18:92:55:9a:7f:b3:e1:18:17:40:29:d7:f6:b4:a4:73:30:
        5d:44:f4:9e:6f:de:0c:b7:c2:a6:76:c5:13:0d:23:22:04:4a:
        aa:b1:0c:4d:bc:a2:d0:22:b6:96:ad:51:d9:c8:36:aa:15:b2:
        32:d5:5f:a0:15:09:60:ee:ce:2e:8a:89:47:1d:23:60:98:04:
        4a:f2:fc:d2:9f:f8:16:7c
-----BEGIN CERTIFICATE-----
MIIGETCCA/mgAwIBAgIBBDANBgkqhkiG9w0BAQUFADBnMQswCQYDVQQGEwJCQTEL
MAkGA1UECBMCUlMxITAfBgNVBAoTGEVsZWt0cm90ZWhuaWNraSBmYWt1bHRldDEa
MBgGA1UECxQRQ0FfTWlsYW5hS25lemV2aWMxDDAKBgNVBAMTA0NBMTAeFw0yMjA0
MTQyMjAxMTlaFw0yMzA0MTQyMjAxMTlaMGoxCzAJBgNVBAYTAkJBMQswCQYDVQQI
EwJSUzEhMB8GA1UEChMYRWxla3Ryb3RlaG5pY2tpIGZha3VsdGV0MRowGAYDVQQL
FBFDQV9NaWxhbmFLbmV6ZXZpYzEPMA0GA1UEAxMGQW5kcmVhMIICIjANBgkqhkiG
9w0BAQEFAAOCAg8AMIICCgKCAgEAmAtL/TXGV+w/crgHfYNGN3bkyhxcbZfwbv73
hpffcMrjtYAuAa9HPP0iflKgY5LOa/0GCmfhmXipnoBJothI3B4lFt0c6VfBR/1g
O555zgA/r2XrQKBlMoCvyRE9O7k4nQ/CxZ23mdf4oOscf6b6e8wn8m5676fcvWrH
xwjrOMvPCJETPYwSzotdfsUAQfV62qojP6r9HcpMktHHpz++4HFe/4854iZ7VS6I
IjpOoX77NM+6YlsKp70pNsbKwSmXfjS0ATrVLIztg1ZbaCNRcz7QPKm1X504d8BO
7lej9HUvx0P85MeCfTb5dxLyyr86hSmz+wB9/CJQzLDu/fnhrVuFz4J5dp1nRUKk
q3+7eF5qgTAqQP8b/qW4voigWLeu2D0oQR1m8X4bEH3lXHDuuEt92PUIPn3isFDT
Eho7IJO7uuUTpDssb+8UqpGXu1m5zSuAvt5MUsHj9s8JHKX+pMzGUnP//GAFKXMy
Ods6yLwK4FD1DjwGePJPl/HJcJjEBRYW3E6eQBw//86alsIPPiUgPMc0viOsQZk2
c8QmeuDe08lYkiWY6xVaPkWznxEpqirfde6j1dHHv8+AYVEMcadF1Aevs76+MzxL
tmgUNI69oqIsXqqBDKYvF6NXk44K+IrwEXBiRnhCrWXW7+lWTT0rObHvu+oTB3SD
wfuIwnECAwEAAaOBxDCBwTAJBgNVHRMEAjAAMBMGA1UdJQQMMAoGCCsGAQUFBwMC
MCwGCWCGSAGG+EIBDQQfFh1PcGVuU1NMIEdlbmVyYXRlZCBDZXJ0aWZpY2F0ZTAd
BgNVHQ4EFgQUQiOozUkO+Bk7QVWuoF+utbjy3f4wHwYDVR0jBBgwFoAU4dI7N9QD
hOXYurtCPvajiAoFJRowMQYDVR0fBCowKDAmoCSgIoYgaHR0cDovLzE5Mi4xNjgu
MjEuODkvcm9vdGNybC5wZW0wDQYJKoZIhvcNAQEFBQADggIBAGiLFOogKfQy0QpX
PskHGkAInvzx14TfCKnF2kmJU7kT2Op9kprPM+2qL0BV5mx9lp57nMbLmI3S9ybu
eW0mLV/M13d3op91UG4/ES45RmBlEND6ewUekPHx8HkVSDfOYt6A4IROzgTD3Xdf
QdSFwdY8OGlzLVZKCOCC5LaXES6zqTFLF9+T5Sw/eNNeXqaTaso/kr3R7oe9brSA
dQ63m0QgpLXPNdfxv96ZGrBJ/jfdALxXO8VWm0x7qwxb46fP/OSnNC4/qmPI/AJb
W/5ZX3gXWCm7/6NSpu4+7chlNyJVHvPkgEy7N7raTQnUuw0gASbvk4eHWnEWlFiz
xFzq8jqJUkEpMKwk9BopfBK0B7lKICiB8l0MrjWem2tmkXSE9KbloE5Z7lahEiKU
aMY6mNdPrP7R9UA2Zb31326+6OzW3ZU/hD/C1C7bFydyxmWTG1kYkDGO9IntEHtF
1VXbwaR6o8mufHDAR+Kfi3jM3B31/ZkRSx9kNjiJYcL4vQkaBv7f9wHxJA3jtYhf
z0zTdb/dXsHlxrNIL9LV5CFz6thERhX4eEchYze1rWdDskwc9MsYklWaf7PhGBdA
Kdf2tKRzMF1E9J5v3gy3wqZ2xRMNIyIESqqxDE28otAitpatUdnINqoVsjLVX6AV
CWDuzi6KiUcdI2CYBEry/NKf+BZ8
-----END CERTIFICATE-----
