-----BEGIN CERTIFICATE-----
MIIGojCCBIqgAwIBAgIURY4RH50cepXzs++hmBkila7KCBMwDQYJKoZIhvcNAQEL
BQAwfzELMAkGA1UEBhMCQkExCzAJBgNVBAgTAlJTMRMwEQYDVQQHEwpCYW5qYSBM
dWthMSEwHwYDVQQKExhFbGVrdHJvdGVobmlja2kgZmFrdWx0ZXQxGjAYBgNVBAsU
EUNBX01pbGFuYUtuZXpldmljMQ8wDQYDVQQDEwZyb290Y2EwHhcNMjIwNDE0MTkz
MTMyWhcNMjMwNDE0MTkzMTMyWjB/MQswCQYDVQQGEwJCQTELMAkGA1UECBMCUlMx
EzARBgNVBAcTCkJhbmphIEx1a2ExITAfBgNVBAoTGEVsZWt0cm90ZWhuaWNraSBm
YWt1bHRldDEaMBgGA1UECxQRQ0FfTWlsYW5hS25lemV2aWMxDzANBgNVBAMTBnJv
b3RjYTCCAiIwDQYJKoZIhvcNAQEBBQADggIPADCCAgoCggIBAJ6+6G8FG5q+T1v0
F+f4nJUC484kU5Sc9ARN4YnEC5maz5ONl+3GbrCLM/duTUmnP/WIbVDDFN8WTqRr
i7RZd+qufW7lUIiua97wtRjUx4lWTn3l5W6RnjskeQkOtk4OCot2EmAbI/uNv2PD
AfZAfg0rO60O7KwlvGiqVI725vyDkF6+I5GhNVAEkAjUgsuHWCREbFMvsYDkiaqu
6Iwl9qEngPxC3R0kXh8Zkqu8D5qMQXDe/xV9MIIzvd0tpzT8Bn1Vc16Sui7BfcGy
1A+KABpuh+/ZsYEmQ5AvKKAywglW0mviUlOP1BNk6teiJenjGkTqXnhoWd1Hziut
rO5EXzBPpovwWnzLOYCzu1AMiW63wKzvJkrAwB9Urfb9S8dGeERS/cgYeTpvghW5
5RVVwTYsVFTgUZjsnPaoT5JU2KnJbmtWdfJ0GneWnzuDJckTxMVQH1NB7ytKFbiG
I8+2tdGsPPfGH1o+HwER0jgFQwZNiDUY1qMkRh90tJbGDO/5xM3Q853jAhAcwje8
ATAcCucdYHmCPRmr14VdkxUjnhl/tZ3HR0n0Vde+1/yXgT/4bZdRKER679tS1qlP
iPEgb520ZDA5PFBjKKRd1MVAuUNLyaNmqAxxJPI80GcHeg3Hw7t5HXffdIHDZ6rJ
1hpc8LDzrJDpMEV4noTKhg2UOfNFAgMBAAGjggEUMIIBEDAdBgNVHQ4EFgQUVMlq
x1w3T9wNa2bfh+gtxHyuW6Qwgb4GA1UdIwSBtjCBs4AUVMlqx1w3T9wNa2bfh+gt
xHyuW6ShgYSkgYEwfzELMAkGA1UEBhMCQkExCzAJBgNVBAgTAlJTMRMwEQYDVQQH
EwpCYW5qYSBMdWthMSEwHwYDVQQKExhFbGVrdHJvdGVobmlja2kgZmFrdWx0ZXQx
GjAYBgNVBAsUEUNBX01pbGFuYUtuZXpldmljMQ8wDQYDVQQDEwZyb290Y2GCFEWO
ER+dHHqV87PvoZgZIpWuyggTMAwGA1UdEwQFMAMBAf8wCwYDVR0PBAQDAgEeMBMG
A1UdJQQMMAoGCCsGAQUFBwMBMA0GCSqGSIb3DQEBCwUAA4ICAQB9cw4rvKnUO3dF
Ho7nYVkRUCCWgl/as0My05ALWRGJbrPN40sWbsOOazs3k9PtbOMzsvrIOT7L3Rkb
qG31ah3ympejrglmG7RqBzin7mcwxVOI4+sgrxN2//EbkHZlmzpfghUy1EVMzhS9
IlkFzBzL+sfALp/KjHeILDb7PgFE6Qf15XuRRIf4WdB4NueKfmXGCCuDzmBhG55W
HoRGkZVrxX4c1oJnRUkyiFZjIP8h9dQGNuDj88vsQ43lKJOEQwOIxxliT7PWojtI
Yb/WDtyixndPzyDKvX3JwUf8jkPsmIVSECFkJt0/+v/CwR01r9Tqx9Wr/q58N1Kg
dbYmcILmyOyJnsHaxTU7lnvnHmpbPaQGoWpWJDUdDGYH4DJcCVr/A3qfFS0ki4sb
DTrmZn754bS2RR5MseN0nOHChhNYf+5+Affabst3ATf+5uLzABeyDWm2fWrCoT+K
/ue/98qjOl0DLyzvEtRHBgiFbremMBcnjR8GoZl+Jfvp72F0JuKdNCOBgZaq0cO4
OyqA5gBvCt0tN1t1d+Tq4mnimsVAjuv0lUe0Q2E6nroMGdfazMxHa0p7EMs5p02E
sDgN/IKnac+P8CzldmJKb8cr7ov4Pp0Fknp4YO+ymS9VvKPc68bt0BBU5lOU6g2j
gGEPr3uktn9X6/B3S2+T4jDRiMXh4Q==
-----END CERTIFICATE-----
Certificate:
    Data:
        Version: 3 (0x2)
        Serial Number: 2 (0x2)
        Signature Algorithm: sha1WithRSAEncryption
        Issuer: C=BA, ST=RS, L=Banja Luka, O=Elektrotehnicki fakultet, OU=CA_MilanaKnezevic, CN=rootca
        Validity
            Not Before: Apr 14 19:36:10 2022 GMT
            Not After : Apr 14 19:36:10 2023 GMT
        Subject: C=BA, ST=RS, O=Elektrotehnicki fakultet, OU=CA_MilanaKnezevic, CN=CA2
        Subject Public Key Info:
            Public Key Algorithm: rsaEncryption
                Public-Key: (4096 bit)
                Modulus:
                    00:89:ba:e4:68:d2:57:cb:3d:b6:f7:8c:c0:cb:ce:
                    b0:cb:16:0a:83:51:d0:c9:5f:7f:97:9d:21:3d:4f:
                    1f:7f:05:17:0e:b8:33:25:93:7c:9e:3f:1f:0d:34:
                    25:07:83:7a:06:76:05:5b:21:49:dd:de:e4:59:0d:
                    51:f5:5a:05:0b:a1:f8:55:89:28:ca:3b:ef:f3:50:
                    b7:5b:1d:89:f7:15:cb:a9:81:0f:64:14:e3:c1:60:
                    6f:87:e5:af:3b:78:8b:9c:76:f4:2f:28:4f:37:b5:
                    5d:e0:22:32:03:15:08:32:56:7a:37:7d:f2:c9:c9:
                    9a:31:5c:27:74:19:29:22:4f:94:30:aa:62:f7:2b:
                    42:2c:9d:e8:27:3a:e9:88:dd:8c:82:02:b1:59:52:
                    dd:ce:75:ee:d2:c5:db:82:29:34:c8:90:ea:e2:f1:
                    72:61:24:78:7e:aa:31:fd:8d:8f:e3:2e:34:9b:70:
                    1c:7d:40:c8:08:53:8c:33:9c:60:f3:ba:8b:4d:37:
                    39:c2:91:f8:1f:0e:e2:e6:b2:2b:97:ea:ca:e9:34:
                    1e:7f:91:ff:dd:a3:93:8f:29:24:d0:02:65:fb:4c:
                    7d:2f:1b:fb:02:e6:39:af:04:3b:88:a0:6e:25:7b:
                    41:ec:f2:08:d9:fe:60:91:97:05:ee:f1:55:22:a7:
                    81:e9:54:8c:71:18:fa:02:12:7f:96:fa:1e:41:09:
                    0d:09:fb:a5:7f:8a:44:54:37:4d:0c:48:f1:c9:3b:
                    2a:ca:d1:06:92:1b:f5:e7:ea:71:fc:16:aa:da:17:
                    3c:c3:0f:d7:35:e1:22:a1:ab:0a:61:cd:5f:4a:56:
                    2f:5d:23:9b:35:9f:87:25:23:4e:2f:db:ae:0b:96:
                    84:f6:79:27:af:ab:fb:89:40:e9:ad:3a:4e:e9:1c:
                    e3:e5:6d:c3:df:05:20:4d:85:16:d1:fa:37:1d:84:
                    b2:e0:f5:4d:d0:b0:19:69:40:b4:d6:32:66:d3:64:
                    f6:2b:a0:bd:6b:28:70:9b:ce:ac:fd:e0:42:a3:a4:
                    36:66:b2:51:44:c1:6a:8a:f8:d0:62:ef:f5:50:ff:
                    c0:46:88:04:4f:9f:8b:b9:a9:cf:e3:9a:70:0c:85:
                    3c:21:ef:71:09:8b:56:15:25:38:6c:63:61:be:f6:
                    f8:af:5e:f2:3c:45:99:05:30:7b:fe:b4:77:e3:47:
                    90:11:b7:6a:b9:17:c8:da:e3:1f:b4:0d:32:02:fe:
                    e4:f9:da:64:42:2d:9c:dd:c8:c4:9b:36:b1:ad:e5:
                    8d:e1:ae:c8:61:9d:92:db:32:be:f6:5c:fd:43:c9:
                    97:5c:53:e5:b0:f4:18:60:4d:21:f9:03:35:8b:96:
                    cb:8b:7b
                Exponent: 65537 (0x10001)
        X509v3 extensions:
            X509v3 Basic Constraints: 
                CA:FALSE
            X509v3 Extended Key Usage: 
                TLS Web Client Authentication
            Netscape Comment: 
                OpenSSL Generated Certificate
            X509v3 Subject Key Identifier: 
                EA:87:3C:7D:2A:6A:C2:DF:1E:A5:8C:49:E8:73:12:86:7B:4B:F8:76
            X509v3 Authority Key Identifier: 
                54:C9:6A:C7:5C:37:4F:DC:0D:6B:66:DF:87:E8:2D:C4:7C:AE:5B:A4
            X509v3 CRL Distribution Points: 
                Full Name:
                  URI:http://192.168.21.89/rootcrl.pem
    Signature Algorithm: sha1WithRSAEncryption
    Signature Value:
        9d:f5:e1:0a:e8:37:45:3a:5e:1f:bf:33:84:d2:bc:23:ad:8b:
        50:6f:a6:48:e9:f0:8b:8c:0c:2b:bc:88:01:33:10:0e:9f:32:
        96:2c:54:f3:f0:e3:00:e8:cf:2c:4b:d5:53:12:ec:2e:b1:8e:
        35:32:4a:4c:c9:db:4c:53:79:54:50:7a:e8:d4:ff:c1:27:56:
        9f:c7:e4:0c:bc:58:b8:3f:6f:e4:f0:88:66:5f:8f:be:04:89:
        27:55:e1:e6:e3:87:e6:e9:6b:17:3a:6a:01:c1:45:71:29:0e:
        1e:5b:86:9b:aa:32:7c:94:2f:ae:b1:28:e3:ca:29:24:54:7d:
        38:3e:d2:e4:e7:47:48:1d:b9:fc:03:05:c9:e6:ff:d9:09:73:
        46:39:ab:b1:c6:55:de:6d:1a:1d:37:95:32:1e:89:4c:4c:d4:
        d8:8e:e3:ee:b2:26:b4:9a:71:b1:4f:22:95:a6:23:45:ee:fd:
        38:e9:36:bd:64:19:15:3c:16:8c:1e:19:0c:84:d1:51:17:99:
        4d:17:ac:7d:c2:13:5c:0f:d8:97:16:ab:7e:dc:e3:47:30:45:
        6b:a7:f6:af:80:bc:bd:3c:90:ec:48:85:b4:19:73:ab:d6:c3:
        51:16:48:36:39:8a:f0:02:8c:8c:c2:04:ef:23:6b:1b:5c:ff:
        6b:fd:42:41:15:74:59:e3:87:bd:9f:44:7d:18:5d:75:3a:ab:
        58:fb:04:40:af:1d:07:12:f7:f9:46:02:ea:6b:7c:2e:db:92:
        18:bd:05:d2:7e:c7:74:b0:c1:08:2d:1e:fd:62:12:44:ea:8e:
        00:70:44:a7:e2:5b:9f:82:7a:66:18:4a:c4:0b:25:8a:a0:2e:
        40:7a:b1:fa:58:53:cc:56:23:c1:f3:6f:44:fc:eb:66:ca:d6:
        af:40:13:28:c4:0a:6b:f0:46:1e:69:2c:66:b9:54:fd:ea:a8:
        e2:3c:d7:e7:4b:ed:e2:68:06:0e:ec:2f:5f:4b:cf:7c:16:65:
        da:76:6a:31:c2:2d:20:94:ae:e2:c8:75:25:89:30:d2:16:69:
        b1:c9:eb:f5:f2:e4:66:2c:df:80:ca:c2:be:2e:11:79:cc:c9:
        a3:ef:18:bd:52:b0:18:44:ba:15:45:f4:c6:69:f8:ee:d1:34:
        dc:72:4c:30:b4:47:31:fa:c0:f7:b0:fa:d1:22:5e:14:84:8e:
        1c:74:66:2e:18:dc:e2:2f:53:32:14:c8:5d:38:50:ea:0f:71:
        dc:c3:82:c0:20:03:ff:fe:44:1d:d2:da:2e:d5:23:48:fd:d0:
        fc:ef:88:17:de:4e:db:d8:45:75:95:a6:d7:e1:9e:48:50:02:
        a3:a6:d8:58:61:32:52:56
-----BEGIN CERTIFICATE-----
MIIGJjCCBA6gAwIBAgIBAjANBgkqhkiG9w0BAQUFADB/MQswCQYDVQQGEwJCQTEL
MAkGA1UECBMCUlMxEzARBgNVBAcTCkJhbmphIEx1a2ExITAfBgNVBAoTGEVsZWt0
cm90ZWhuaWNraSBmYWt1bHRldDEaMBgGA1UECxQRQ0FfTWlsYW5hS25lemV2aWMx
DzANBgNVBAMTBnJvb3RjYTAeFw0yMjA0MTQxOTM2MTBaFw0yMzA0MTQxOTM2MTBa
MGcxCzAJBgNVBAYTAkJBMQswCQYDVQQIEwJSUzEhMB8GA1UEChMYRWxla3Ryb3Rl
aG5pY2tpIGZha3VsdGV0MRowGAYDVQQLFBFDQV9NaWxhbmFLbmV6ZXZpYzEMMAoG
A1UEAxMDQ0EyMIICIjANBgkqhkiG9w0BAQEFAAOCAg8AMIICCgKCAgEAibrkaNJX
yz2294zAy86wyxYKg1HQyV9/l50hPU8ffwUXDrgzJZN8nj8fDTQlB4N6BnYFWyFJ
3d7kWQ1R9VoFC6H4VYkoyjvv81C3Wx2J9xXLqYEPZBTjwWBvh+WvO3iLnHb0LyhP
N7Vd4CIyAxUIMlZ6N33yycmaMVwndBkpIk+UMKpi9ytCLJ3oJzrpiN2MggKxWVLd
znXu0sXbgik0yJDq4vFyYSR4fqox/Y2P4y40m3AcfUDICFOMM5xg87qLTTc5wpH4
Hw7i5rIrl+rK6TQef5H/3aOTjykk0AJl+0x9Lxv7AuY5rwQ7iKBuJXtB7PII2f5g
kZcF7vFVIqeB6VSMcRj6AhJ/lvoeQQkNCfulf4pEVDdNDEjxyTsqytEGkhv15+px
/Baq2hc8ww/XNeEioasKYc1fSlYvXSObNZ+HJSNOL9uuC5aE9nknr6v7iUDprTpO
6Rzj5W3D3wUgTYUW0fo3HYSy4PVN0LAZaUC01jJm02T2K6C9ayhwm86s/eBCo6Q2
ZrJRRMFqivjQYu/1UP/ARogET5+LuanP45pwDIU8Ie9xCYtWFSU4bGNhvvb4r17y
PEWZBTB7/rR340eQEbdquRfI2uMftA0yAv7k+dpkQi2c3cjEmzaxreWN4a7IYZ2S
2zK+9lz9Q8mXXFPlsPQYYE0h+QM1i5bLi3sCAwEAAaOBxDCBwTAJBgNVHRMEAjAA
MBMGA1UdJQQMMAoGCCsGAQUFBwMCMCwGCWCGSAGG+EIBDQQfFh1PcGVuU1NMIEdl
bmVyYXRlZCBDZXJ0aWZpY2F0ZTAdBgNVHQ4EFgQU6oc8fSpqwt8epYxJ6HMShntL
+HYwHwYDVR0jBBgwFoAUVMlqx1w3T9wNa2bfh+gtxHyuW6QwMQYDVR0fBCowKDAm
oCSgIoYgaHR0cDovLzE5Mi4xNjguMjEuODkvcm9vdGNybC5wZW0wDQYJKoZIhvcN
AQEFBQADggIBAJ314QroN0U6Xh+/M4TSvCOti1Bvpkjp8IuMDCu8iAEzEA6fMpYs
VPPw4wDozyxL1VMS7C6xjjUySkzJ20xTeVRQeujU/8EnVp/H5Ay8WLg/b+TwiGZf
j74EiSdV4ebjh+bpaxc6agHBRXEpDh5bhpuqMnyUL66xKOPKKSRUfTg+0uTnR0gd
ufwDBcnm/9kJc0Y5q7HGVd5tGh03lTIeiUxM1NiO4+6yJrSacbFPIpWmI0Xu/Tjp
Nr1kGRU8FoweGQyE0VEXmU0XrH3CE1wP2JcWq37c40cwRWun9q+AvL08kOxIhbQZ
c6vWw1EWSDY5ivACjIzCBO8jaxtc/2v9QkEVdFnjh72fRH0YXXU6q1j7BECvHQcS
9/lGAuprfC7bkhi9BdJ+x3SwwQgtHv1iEkTqjgBwRKfiW5+CemYYSsQLJYqgLkB6
sfpYU8xWI8Hzb0T862bK1q9AEyjECmvwRh5pLGa5VP3qqOI81+dL7eJoBg7sL19L
z3wWZdp2ajHCLSCUruLIdSWJMNIWabHJ6/Xy5GYs34DKwr4uEXnMyaPvGL1SsBhE
uhVF9MZp+O7RNNxyTDC0RzH6wPew+tEiXhSEjhx0Zi4Y3OIvUzIUyF04UOoPcdzD
gsAgA//+RB3S2i7VI0j90PzviBfeTtvYRXWVptfhnkhQAqOm2FhhMlJW
-----END CERTIFICATE-----
