Certificate:
    Data:
        Version: 3 (0x2)
        Serial Number: 1 (0x1)
        Signature Algorithm: sha1WithRSAEncryption
        Issuer: C=BA, ST=RS, O=Elektrotehnicki fakultet, OU=CA_MilanaKnezevic, CN=CA1
        Validity
            Not Before: Apr 14 19:43:56 2022 GMT
            Not After : Apr 14 19:43:56 2023 GMT
        Subject: C=BA, ST=RS, O=Elektrotehnicki fakultet, OU=CA_MilanaKnezevic, CN=Milana
        Subject Public Key Info:
            Public Key Algorithm: rsaEncryption
                Public-Key: (4096 bit)
                Modulus:
                    00:8d:df:d5:24:3a:31:cf:25:64:21:96:a1:01:9f:
                    0d:85:81:fb:62:e1:6c:cb:93:10:34:ed:9a:2c:54:
                    40:39:25:b8:00:f6:08:e3:8b:d9:a1:33:d0:27:78:
                    64:eb:b0:ba:ef:39:8a:03:38:18:bc:e7:81:89:5d:
                    7e:7f:69:21:19:79:0c:fe:d9:d4:a9:5b:f0:a2:20:
                    5e:7d:54:4d:fd:7a:86:cc:c7:41:47:a6:ca:c7:06:
                    9d:b4:54:5a:ec:4f:80:54:85:9e:db:69:70:b7:40:
                    76:c7:91:60:9f:ef:c8:1c:36:1e:ba:0d:4c:cc:c8:
                    0d:99:2c:37:7e:19:0f:0b:bf:e3:25:29:9e:a9:31:
                    c4:71:e1:96:4d:97:f3:f1:42:43:04:f7:44:1c:60:
                    9b:d9:46:c9:02:13:32:6a:ed:af:36:cc:17:a3:93:
                    56:19:4f:98:ea:ad:2a:44:cb:41:42:6e:49:28:c6:
                    df:3d:07:db:e8:f5:b0:fd:4c:fe:75:dc:e2:6d:9b:
                    3e:6d:24:65:c9:73:5e:49:41:71:f0:22:91:b1:7c:
                    3d:f2:8f:e3:59:8a:14:04:78:b2:41:6f:17:e1:75:
                    ea:db:01:02:87:f1:10:1a:a1:92:a7:6e:2d:f2:a4:
                    7f:5b:ec:70:06:58:37:71:75:75:9c:e2:18:d3:18:
                    35:f1:84:2d:17:c1:b2:96:24:50:67:50:25:7c:9c:
                    4d:4d:3d:5a:a8:1e:f1:7e:c9:09:52:3b:cd:02:c1:
                    ff:52:93:e7:12:6a:ec:ae:7d:5b:40:d2:e3:86:a6:
                    79:e9:20:43:3d:8a:19:2a:88:71:48:e1:2d:0a:f7:
                    bb:69:3e:7b:73:0d:be:5b:fd:df:cb:f7:29:96:99:
                    8c:c7:97:28:10:6a:33:21:3d:f5:d6:43:31:84:8a:
                    bd:92:27:c4:59:a0:df:99:df:d1:4f:69:98:f6:7e:
                    1d:7b:f3:f6:3c:64:56:e1:c7:7f:16:2f:f6:be:60:
                    62:fc:33:ea:57:06:66:26:42:3a:c4:0d:b0:aa:c6:
                    e7:68:7f:0e:72:f0:5d:0b:49:9c:8b:4c:f9:0a:cb:
                    40:83:f9:74:38:bc:09:8d:76:17:f7:64:a1:7a:f3:
                    c2:99:1a:7f:eb:37:d5:23:8d:12:37:11:9a:7e:dd:
                    67:61:19:7e:8c:a4:b0:bd:da:56:1d:a4:6c:a6:17:
                    6b:c9:94:27:05:ca:1c:46:62:de:87:dd:d6:84:9e:
                    d9:21:de:45:94:aa:03:fe:3e:79:38:84:e0:3a:d4:
                    ab:3c:cd:50:6c:1a:ec:4a:f3:3e:21:f3:82:71:1d:
                    08:25:47:2c:7c:04:a3:1e:6f:c7:34:80:85:6a:fb:
                    18:e9:11
                Exponent: 65537 (0x10001)
        X509v3 extensions:
            X509v3 Basic Constraints: 
                CA:FALSE
            X509v3 Extended Key Usage: 
                TLS Web Client Authentication
            Netscape Comment: 
                OpenSSL Generated Certificate
            X509v3 Subject Key Identifier: 
                AF:D9:BB:E8:79:BF:78:97:AB:00:85:0E:DE:D5:87:C6:99:BE:A4:E5
            X509v3 Authority Key Identifier: 
                E1:D2:3B:37:D4:03:84:E5:D8:BA:BB:42:3E:F6:A3:88:0A:05:25:1A
            X509v3 CRL Distribution Points: 
                Full Name:
                  URI:http://192.168.21.89/rootcrl.pem
    Signature Algorithm: sha1WithRSAEncryption
    Signature Value:
        90:4c:b7:ed:dc:3a:09:49:80:f7:29:31:bb:ea:4b:c4:e2:6c:
        3a:9c:9f:28:13:f2:0b:8d:9d:6a:61:92:bc:38:25:ce:69:51:
        65:24:97:58:87:a3:6e:01:f7:ad:82:bf:af:5f:9f:2d:d9:61:
        47:a8:bc:4f:26:93:21:6c:03:71:a1:a1:90:f3:03:3b:fa:34:
        69:a2:c8:8c:7e:22:47:ac:9f:e1:b3:ed:c5:32:5f:e0:8f:94:
        f3:28:5f:de:ae:33:7f:df:33:a6:7f:b1:76:c6:9e:7b:75:8d:
        06:40:d8:9b:77:04:87:f3:17:ff:de:6c:22:3a:09:10:c8:f1:
        af:71:35:da:6c:b6:4d:61:12:b2:a1:ca:db:dc:5b:03:56:fc:
        42:2c:1d:1b:e7:1f:6c:33:82:4c:e7:a8:d7:51:b5:6c:c3:35:
        dc:26:ba:05:bf:2c:a2:71:c8:a8:50:c9:c8:15:72:a4:2e:a5:
        97:d4:de:a2:ac:7e:73:e1:68:72:31:ec:60:80:31:21:f4:e1:
        c1:88:d2:3e:05:02:f9:d0:fc:a0:e7:8d:9a:e8:87:60:87:1e:
        c0:69:7d:ec:e1:62:3c:81:db:bb:31:2f:39:20:e6:91:26:8e:
        e5:b2:c5:b8:a6:d5:59:73:ca:71:06:46:08:3f:ae:e6:b1:da:
        ee:cb:36:68:f5:45:1b:31:21:be:18:2a:c1:39:53:42:27:67:
        35:b2:0c:21:d2:2a:17:d7:79:af:ba:66:96:91:40:dc:a0:61:
        7f:2f:ab:48:98:0f:b3:35:25:6c:a8:26:69:55:55:a3:ea:9b:
        6e:c9:4b:b9:da:07:59:66:bf:0c:ab:57:90:8f:d1:94:60:3b:
        2d:71:53:2a:cd:77:32:65:0b:2e:87:22:62:e0:0d:15:22:f2:
        97:90:16:33:7a:31:2a:84:2d:76:ed:81:ee:94:1b:6a:b5:95:
        6a:32:11:79:da:c3:54:c4:39:c3:c4:41:82:e2:2b:b2:81:52:
        b6:f3:5e:9b:c2:40:00:bc:2b:fc:72:28:60:a4:7c:8d:1a:2c:
        62:62:1d:59:2e:eb:88:9e:44:68:67:2c:a1:53:a5:77:e9:1b:
        c3:89:31:a7:4f:a7:58:e6:4f:6e:68:35:ac:ac:76:0a:b0:b6:
        a6:d9:6a:69:88:31:b1:43:f2:eb:a3:c2:5c:ee:0f:18:ee:bc:
        f2:2b:01:33:ac:05:09:34:d4:e8:10:24:d2:a5:40:b6:14:ae:
        44:cc:c4:82:f6:85:4a:d6:de:5a:8a:8a:5a:e1:91:4d:26:ed:
        b0:71:e4:47:58:c5:62:69:19:06:e7:db:fb:12:f1:24:5b:ca:
        35:79:ec:ca:cd:18:e4:c7
-----BEGIN CERTIFICATE-----
MIIGETCCA/mgAwIBAgIBATANBgkqhkiG9w0BAQUFADBnMQswCQYDVQQGEwJCQTEL
MAkGA1UECBMCUlMxITAfBgNVBAoTGEVsZWt0cm90ZWhuaWNraSBmYWt1bHRldDEa
MBgGA1UECxQRQ0FfTWlsYW5hS25lemV2aWMxDDAKBgNVBAMTA0NBMTAeFw0yMjA0
MTQxOTQzNTZaFw0yMzA0MTQxOTQzNTZaMGoxCzAJBgNVBAYTAkJBMQswCQYDVQQI
EwJSUzEhMB8GA1UEChMYRWxla3Ryb3RlaG5pY2tpIGZha3VsdGV0MRowGAYDVQQL
FBFDQV9NaWxhbmFLbmV6ZXZpYzEPMA0GA1UEAxMGTWlsYW5hMIICIjANBgkqhkiG
9w0BAQEFAAOCAg8AMIICCgKCAgEAjd/VJDoxzyVkIZahAZ8NhYH7YuFsy5MQNO2a
LFRAOSW4APYI44vZoTPQJ3hk67C67zmKAzgYvOeBiV1+f2khGXkM/tnUqVvwoiBe
fVRN/XqGzMdBR6bKxwadtFRa7E+AVIWe22lwt0B2x5Fgn+/IHDYeug1MzMgNmSw3
fhkPC7/jJSmeqTHEceGWTZfz8UJDBPdEHGCb2UbJAhMyau2vNswXo5NWGU+Y6q0q
RMtBQm5JKMbfPQfb6PWw/Uz+ddzibZs+bSRlyXNeSUFx8CKRsXw98o/jWYoUBHiy
QW8X4XXq2wECh/EQGqGSp24t8qR/W+xwBlg3cXV1nOIY0xg18YQtF8GyliRQZ1Al
fJxNTT1aqB7xfskJUjvNAsH/UpPnEmrsrn1bQNLjhqZ56SBDPYoZKohxSOEtCve7
aT57cw2+W/3fy/cplpmMx5coEGozIT311kMxhIq9kifEWaDfmd/RT2mY9n4de/P2
PGRW4cd/Fi/2vmBi/DPqVwZmJkI6xA2wqsbnaH8OcvBdC0mci0z5CstAg/l0OLwJ
jXYX92ShevPCmRp/6zfVI40SNxGaft1nYRl+jKSwvdpWHaRsphdryZQnBcocRmLe
h93WhJ7ZId5FlKoD/j55OITgOtSrPM1QbBrsSvM+IfOCcR0IJUcsfASjHm/HNICF
avsY6RECAwEAAaOBxDCBwTAJBgNVHRMEAjAAMBMGA1UdJQQMMAoGCCsGAQUFBwMC
MCwGCWCGSAGG+EIBDQQfFh1PcGVuU1NMIEdlbmVyYXRlZCBDZXJ0aWZpY2F0ZTAd
BgNVHQ4EFgQUr9m76Hm/eJerAIUO3tWHxpm+pOUwHwYDVR0jBBgwFoAU4dI7N9QD
hOXYurtCPvajiAoFJRowMQYDVR0fBCowKDAmoCSgIoYgaHR0cDovLzE5Mi4xNjgu
MjEuODkvcm9vdGNybC5wZW0wDQYJKoZIhvcNAQEFBQADggIBAJBMt+3cOglJgPcp
MbvqS8TibDqcnygT8guNnWphkrw4Jc5pUWUkl1iHo24B962Cv69fny3ZYUeovE8m
kyFsA3GhoZDzAzv6NGmiyIx+Ikesn+Gz7cUyX+CPlPMoX96uM3/fM6Z/sXbGnnt1
jQZA2Jt3BIfzF//ebCI6CRDI8a9xNdpstk1hErKhytvcWwNW/EIsHRvnH2wzgkzn
qNdRtWzDNdwmugW/LKJxyKhQycgVcqQupZfU3qKsfnPhaHIx7GCAMSH04cGI0j4F
AvnQ/KDnjZroh2CHHsBpfezhYjyB27sxLzkg5pEmjuWyxbim1VlzynEGRgg/ruax
2u7LNmj1RRsxIb4YKsE5U0InZzWyDCHSKhfXea+6ZpaRQNygYX8vq0iYD7M1JWyo
JmlVVaPqm27JS7naB1lmvwyrV5CP0ZRgOy1xUyrNdzJlCy6HImLgDRUi8peQFjN6
MSqELXbtge6UG2q1lWoyEXnaw1TEOcPEQYLiK7KBUrbzXpvCQAC8K/xyKGCkfI0a
LGJiHVku64ieRGhnLKFTpXfpG8OJMadPp1jmT25oNaysdgqwtqbZammIMbFD8uuj
wlzuDxjuvPIrATOsBQk01OgQJNKlQLYUrkTMxIL2hUrW3lqKilrhkU0m7bBx5EdY
xWJpGQbn2/sS8SRbyjV57MrNGOTH
-----END CERTIFICATE-----
