Certificate:
    Data:
        Version: 3 (0x2)
        Serial Number: 1 (0x1)
        Signature Algorithm: sha1WithRSAEncryption
        Issuer: C=BA, ST=RS, L=Banja Luka, O=Elektrotehnicki fakultet, OU=CA_MilanaKnezevic, CN=rootca
        Validity
            Not Before: Apr 14 19:34:48 2022 GMT
            Not After : Apr 14 19:34:48 2023 GMT
        Subject: C=BA, ST=RS, O=Elektrotehnicki fakultet, OU=CA_MilanaKnezevic, CN=CA1
        Subject Public Key Info:
            Public Key Algorithm: rsaEncryption
                Public-Key: (4096 bit)
                Modulus:
                    00:b9:a5:ca:b9:15:d8:12:91:c7:5e:4e:64:3f:5f:
                    0b:93:d9:e9:c9:0b:4a:a4:c8:0a:58:74:68:76:4c:
                    bc:6a:b1:0c:f0:d2:ae:33:9c:0d:fa:36:06:ea:84:
                    6e:0b:0e:a1:7d:d0:03:d9:c7:4c:08:89:55:aa:d8:
                    2e:e2:16:04:28:83:a4:8b:d5:26:d1:2b:ba:61:45:
                    2d:51:a9:e9:a7:10:15:ee:15:5a:60:7a:37:e3:5a:
                    9f:09:d6:5a:ac:02:cc:8a:38:f6:49:62:a4:28:fa:
                    ad:04:c8:2e:e7:8c:4f:cf:92:7e:b3:80:5b:8b:d5:
                    bc:36:76:09:57:bb:eb:66:ee:ec:cc:db:e2:88:0f:
                    04:fa:ea:33:81:bb:0c:bc:60:9a:cd:a7:67:b0:43:
                    e0:d0:30:0e:05:f6:1a:8d:5d:55:cd:8d:a7:8b:d1:
                    73:97:b7:09:05:3f:c8:bf:20:e8:aa:dc:f2:24:46:
                    0a:9b:2d:bf:ac:76:c0:7f:d5:6c:bb:68:9f:c2:58:
                    c8:64:8e:df:d7:a2:8d:17:05:c7:55:5b:f7:f0:a8:
                    5b:18:13:ac:74:b9:1f:cb:7f:24:5d:1b:e1:fc:7b:
                    0b:b7:8e:41:e8:5d:56:05:89:d1:f5:b1:ad:93:09:
                    cc:a1:77:4d:2c:7b:c7:29:4e:52:35:5b:62:ac:cd:
                    83:e2:1d:df:da:d0:3c:a2:f3:26:c2:92:e9:c5:8e:
                    86:f6:27:e9:1d:39:22:fb:6c:db:91:61:13:4a:e7:
                    01:13:9e:03:07:6a:d4:82:3a:d7:9d:2c:3d:bf:b8:
                    b3:3b:d5:39:9c:f8:b3:98:98:2b:a7:f4:28:3f:6b:
                    13:d1:f3:9b:c0:bb:90:f5:45:36:f2:70:cf:6d:c9:
                    a0:4c:e7:6e:ec:7f:d8:09:b3:0b:6e:50:19:2e:1a:
                    87:1a:5f:ff:4e:8d:86:29:a2:7b:67:98:3a:09:c6:
                    a9:d9:d0:10:86:ab:cf:8a:98:2e:67:fc:19:e3:ff:
                    00:3d:12:df:6e:17:97:1b:44:f7:38:e8:31:44:e2:
                    42:bd:69:81:c6:d3:86:65:9e:2f:19:77:94:14:19:
                    1e:9d:ed:48:73:87:68:3c:0a:9f:b1:5c:02:56:80:
                    04:69:5f:ee:08:6c:88:24:d5:45:b2:fe:10:27:00:
                    94:b6:b5:d8:8e:c7:6b:a9:7f:ca:32:13:76:b9:23:
                    35:91:e5:e7:ae:7d:59:6a:6d:57:ad:4a:ef:6b:f1:
                    61:39:0f:62:8e:84:c7:1e:ef:d6:3f:95:4a:35:e3:
                    4c:a7:fd:b1:ae:62:2e:51:35:8f:af:ca:6b:b6:f5:
                    6a:ba:91:4f:bb:81:76:69:01:29:a3:d0:99:bf:ff:
                    97:d5:7b
                Exponent: 65537 (0x10001)
        X509v3 extensions:
            X509v3 Basic Constraints: 
                CA:FALSE
            X509v3 Extended Key Usage: 
                TLS Web Client Authentication
            Netscape Comment: 
                OpenSSL Generated Certificate
            X509v3 Subject Key Identifier: 
                E1:D2:3B:37:D4:03:84:E5:D8:BA:BB:42:3E:F6:A3:88:0A:05:25:1A
            X509v3 Authority Key Identifier: 
                54:C9:6A:C7:5C:37:4F:DC:0D:6B:66:DF:87:E8:2D:C4:7C:AE:5B:A4
            X509v3 CRL Distribution Points: 
                Full Name:
                  URI:http://192.168.21.89/rootcrl.pem
    Signature Algorithm: sha1WithRSAEncryption
    Signature Value:
        6e:e7:0f:ec:2a:42:bb:31:d9:cf:24:52:b3:82:ee:16:a2:f4:
        2e:a7:07:08:88:6b:41:ff:a7:90:e6:5f:1f:d2:cf:55:5a:69:
        d0:f3:99:e8:61:b7:20:2c:c5:5e:b8:30:32:6f:2a:cc:02:13:
        44:5a:6c:e7:24:61:27:ae:48:75:78:d1:31:99:e1:24:09:e0:
        a5:df:b4:16:f6:28:3d:3d:49:29:6f:67:bf:62:be:fa:61:dd:
        d8:ca:61:3f:28:b3:ac:bf:4e:3e:48:28:d5:87:74:ff:dc:9d:
        8a:af:12:4f:8d:c9:03:fb:73:54:97:f7:6d:df:67:e0:bc:32:
        3c:b7:8a:58:ce:7d:c0:e4:a7:fd:7d:57:19:9a:28:f5:f9:6d:
        15:48:42:5b:18:5b:0e:e1:d7:40:58:64:d3:92:44:00:0e:63:
        bf:bd:8f:d6:f9:f3:8c:eb:32:c6:02:16:c7:96:5d:7a:72:53:
        c6:cf:83:85:33:aa:f0:16:d6:c0:68:07:b0:4f:bc:aa:e4:49:
        2d:16:86:e0:b9:d0:e2:3e:f4:29:ce:1f:f9:07:53:71:fb:b9:
        de:84:41:83:b9:d0:bb:17:83:c0:e2:13:7e:e3:93:1c:94:2d:
        83:ff:ef:95:38:6a:14:b0:43:39:7a:4f:63:cb:b5:c5:63:23:
        b0:92:61:aa:c4:3d:35:9f:65:8f:be:9a:71:a7:52:95:a3:ab:
        2d:e7:b8:a6:7a:ca:50:8f:c8:0b:0f:6f:c3:b5:66:26:08:88:
        9b:22:b9:ac:de:cb:ee:7e:48:d6:df:1c:d9:11:d8:db:10:65:
        4d:10:f5:9a:fb:7d:b2:78:7b:e1:b2:96:bb:01:98:71:6a:a5:
        22:0f:2c:d4:40:c1:67:aa:89:dc:78:78:e9:55:96:21:3b:c9:
        bd:9e:04:a0:92:93:2e:f1:fc:4d:b8:5b:7c:06:61:e9:12:90:
        1b:5c:0d:a1:4c:97:10:85:49:41:c2:2b:93:00:4e:04:98:0f:
        a9:4b:9a:07:30:d8:7a:2c:1a:77:d4:2a:78:1f:0b:86:f7:ad:
        06:84:39:eb:72:58:e8:21:73:ba:e5:64:60:2c:b5:e8:53:0d:
        54:b1:11:d1:28:a2:53:6c:46:ba:49:ad:2f:a2:0a:ad:b7:cc:
        c1:be:e1:5f:79:9e:89:ef:5b:9b:00:ff:e0:57:0e:70:4e:90:
        a2:eb:93:15:aa:3b:1d:7c:b9:1d:a6:52:90:80:a5:83:54:a8:
        47:ba:85:26:be:57:bb:2a:2e:96:9c:84:d2:1e:7d:1c:96:9a:
        4c:97:7c:63:48:37:82:ae:c0:50:dc:ea:33:83:0d:b7:97:1c:
        82:3c:3e:7e:b6:b2:72:92
-----BEGIN CERTIFICATE-----
MIIGJjCCBA6gAwIBAgIBATANBgkqhkiG9w0BAQUFADB/MQswCQYDVQQGEwJCQTEL
MAkGA1UECBMCUlMxEzARBgNVBAcTCkJhbmphIEx1a2ExITAfBgNVBAoTGEVsZWt0
cm90ZWhuaWNraSBmYWt1bHRldDEaMBgGA1UECxQRQ0FfTWlsYW5hS25lemV2aWMx
DzANBgNVBAMTBnJvb3RjYTAeFw0yMjA0MTQxOTM0NDhaFw0yMzA0MTQxOTM0NDha
MGcxCzAJBgNVBAYTAkJBMQswCQYDVQQIEwJSUzEhMB8GA1UEChMYRWxla3Ryb3Rl
aG5pY2tpIGZha3VsdGV0MRowGAYDVQQLFBFDQV9NaWxhbmFLbmV6ZXZpYzEMMAoG
A1UEAxMDQ0ExMIICIjANBgkqhkiG9w0BAQEFAAOCAg8AMIICCgKCAgEAuaXKuRXY
EpHHXk5kP18Lk9npyQtKpMgKWHRodky8arEM8NKuM5wN+jYG6oRuCw6hfdAD2cdM
CIlVqtgu4hYEKIOki9Um0Su6YUUtUanppxAV7hVaYHo341qfCdZarALMijj2SWKk
KPqtBMgu54xPz5J+s4Bbi9W8NnYJV7vrZu7szNviiA8E+uozgbsMvGCazadnsEPg
0DAOBfYajV1VzY2ni9Fzl7cJBT/IvyDoqtzyJEYKmy2/rHbAf9Vsu2ifwljIZI7f
16KNFwXHVVv38KhbGBOsdLkfy38kXRvh/HsLt45B6F1WBYnR9bGtkwnMoXdNLHvH
KU5SNVtirM2D4h3f2tA8ovMmwpLpxY6G9ifpHTki+2zbkWETSucBE54DB2rUgjrX
nSw9v7izO9U5nPizmJgrp/QoP2sT0fObwLuQ9UU28nDPbcmgTOdu7H/YCbMLblAZ
LhqHGl//To2GKaJ7Z5g6Ccap2dAQhqvPipguZ/wZ4/8APRLfbheXG0T3OOgxROJC
vWmBxtOGZZ4vGXeUFBkene1Ic4doPAqfsVwCVoAEaV/uCGyIJNVFsv4QJwCUtrXY
jsdrqX/KMhN2uSM1keXnrn1Zam1XrUrva/FhOQ9ijoTHHu/WP5VKNeNMp/2xrmIu
UTWPr8prtvVqupFPu4F2aQEpo9CZv/+X1XsCAwEAAaOBxDCBwTAJBgNVHRMEAjAA
MBMGA1UdJQQMMAoGCCsGAQUFBwMCMCwGCWCGSAGG+EIBDQQfFh1PcGVuU1NMIEdl
bmVyYXRlZCBDZXJ0aWZpY2F0ZTAdBgNVHQ4EFgQU4dI7N9QDhOXYurtCPvajiAoF
JRowHwYDVR0jBBgwFoAUVMlqx1w3T9wNa2bfh+gtxHyuW6QwMQYDVR0fBCowKDAm
oCSgIoYgaHR0cDovLzE5Mi4xNjguMjEuODkvcm9vdGNybC5wZW0wDQYJKoZIhvcN
AQEFBQADggIBAG7nD+wqQrsx2c8kUrOC7hai9C6nBwiIa0H/p5DmXx/Sz1VaadDz
mehhtyAsxV64MDJvKswCE0RabOckYSeuSHV40TGZ4SQJ4KXftBb2KD09SSlvZ79i
vvph3djKYT8os6y/Tj5IKNWHdP/cnYqvEk+NyQP7c1SX923fZ+C8Mjy3iljOfcDk
p/19VxmaKPX5bRVIQlsYWw7h10BYZNOSRAAOY7+9j9b584zrMsYCFseWXXpyU8bP
g4UzqvAW1sBoB7BPvKrkSS0WhuC50OI+9CnOH/kHU3H7ud6EQYO50LsXg8DiE37j
kxyULYP/75U4ahSwQzl6T2PLtcVjI7CSYarEPTWfZY++mnGnUpWjqy3nuKZ6ylCP
yAsPb8O1ZiYIiJsiuazey+5+SNbfHNkR2NsQZU0Q9Zr7fbJ4e+GylrsBmHFqpSIP
LNRAwWeqidx4eOlVliE7yb2eBKCSky7x/E24W3wGYekSkBtcDaFMlxCFSUHCK5MA
TgSYD6lLmgcw2HosGnfUKngfC4b3rQaEOetyWOghc7rlZGAstehTDVSxEdEoolNs
RrpJrS+iCq23zMG+4V95nonvW5sA/+BXDnBOkKLrkxWqOx18uR2mUpCApYNUqEe6
hSa+V7sqLpachNIefRyWmkyXfGNIN4KuwFDc6jODDbeXHII8Pn62snKS
-----END CERTIFICATE-----
-----BEGIN CERTIFICATE-----
MIIGojCCBIqgAwIBAgIURY4RH50cepXzs++hmBkila7KCBMwDQYJKoZIhvcNAQEL
BQAwfzELMAkGA1UEBhMCQkExCzAJBgNVBAgTAlJTMRMwEQYDVQQHEwpCYW5qYSBM
dWthMSEwHwYDVQQKExhFbGVrdHJvdGVobmlja2kgZmFrdWx0ZXQxGjAYBgNVBAsU
EUNBX01pbGFuYUtuZXpldmljMQ8wDQYDVQQDEwZyb290Y2EwHhcNMjIwNDE0MTkz
MTMyWhcNMjMwNDE0MTkzMTMyWjB/MQswCQYDVQQGEwJCQTELMAkGA1UECBMCUlMx
EzARBgNVBAcTCkJhbmphIEx1a2ExITAfBgNVBAoTGEVsZWt0cm90ZWhuaWNraSBm
YWt1bHRldDEaMBgGA1UECxQRQ0FfTWlsYW5hS25lemV2aWMxDzANBgNVBAMTBnJv
b3RjYTCCAiIwDQYJKoZIhvcNAQEBBQADggIPADCCAgoCggIBAJ6+6G8FG5q+T1v0
F+f4nJUC484kU5Sc9ARN4YnEC5maz5ONl+3GbrCLM/duTUmnP/WIbVDDFN8WTqRr
i7RZd+qufW7lUIiua97wtRjUx4lWTn3l5W6RnjskeQkOtk4OCot2EmAbI/uNv2PD
AfZAfg0rO60O7KwlvGiqVI725vyDkF6+I5GhNVAEkAjUgsuHWCREbFMvsYDkiaqu
6Iwl9qEngPxC3R0kXh8Zkqu8D5qMQXDe/xV9MIIzvd0tpzT8Bn1Vc16Sui7BfcGy
1A+KABpuh+/ZsYEmQ5AvKKAywglW0mviUlOP1BNk6teiJenjGkTqXnhoWd1Hziut
rO5EXzBPpovwWnzLOYCzu1AMiW63wKzvJkrAwB9Urfb9S8dGeERS/cgYeTpvghW5
5RVVwTYsVFTgUZjsnPaoT5JU2KnJbmtWdfJ0GneWnzuDJckTxMVQH1NB7ytKFbiG
I8+2tdGsPPfGH1o+HwER0jgFQwZNiDUY1qMkRh90tJbGDO/5xM3Q853jAhAcwje8
ATAcCucdYHmCPRmr14VdkxUjnhl/tZ3HR0n0Vde+1/yXgT/4bZdRKER679tS1qlP
iPEgb520ZDA5PFBjKKRd1MVAuUNLyaNmqAxxJPI80GcHeg3Hw7t5HXffdIHDZ6rJ
1hpc8LDzrJDpMEV4noTKhg2UOfNFAgMBAAGjggEUMIIBEDAdBgNVHQ4EFgQUVMlq
x1w3T9wNa2bfh+gtxHyuW6Qwgb4GA1UdIwSBtjCBs4AUVMlqx1w3T9wNa2bfh+gt
xHyuW6ShgYSkgYEwfzELMAkGA1UEBhMCQkExCzAJBgNVBAgTAlJTMRMwEQYDVQQH
EwpCYW5qYSBMdWthMSEwHwYDVQQKExhFbGVrdHJvdGVobmlja2kgZmFrdWx0ZXQx
GjAYBgNVBAsUEUNBX01pbGFuYUtuZXpldmljMQ8wDQYDVQQDEwZyb290Y2GCFEWO
ER+dHHqV87PvoZgZIpWuyggTMAwGA1UdEwQFMAMBAf8wCwYDVR0PBAQDAgEeMBMG
A1UdJQQMMAoGCCsGAQUFBwMBMA0GCSqGSIb3DQEBCwUAA4ICAQB9cw4rvKnUO3dF
Ho7nYVkRUCCWgl/as0My05ALWRGJbrPN40sWbsOOazs3k9PtbOMzsvrIOT7L3Rkb
qG31ah3ympejrglmG7RqBzin7mcwxVOI4+sgrxN2//EbkHZlmzpfghUy1EVMzhS9
IlkFzBzL+sfALp/KjHeILDb7PgFE6Qf15XuRRIf4WdB4NueKfmXGCCuDzmBhG55W
HoRGkZVrxX4c1oJnRUkyiFZjIP8h9dQGNuDj88vsQ43lKJOEQwOIxxliT7PWojtI
Yb/WDtyixndPzyDKvX3JwUf8jkPsmIVSECFkJt0/+v/CwR01r9Tqx9Wr/q58N1Kg
dbYmcILmyOyJnsHaxTU7lnvnHmpbPaQGoWpWJDUdDGYH4DJcCVr/A3qfFS0ki4sb
DTrmZn754bS2RR5MseN0nOHChhNYf+5+Affabst3ATf+5uLzABeyDWm2fWrCoT+K
/ue/98qjOl0DLyzvEtRHBgiFbremMBcnjR8GoZl+Jfvp72F0JuKdNCOBgZaq0cO4
OyqA5gBvCt0tN1t1d+Tq4mnimsVAjuv0lUe0Q2E6nroMGdfazMxHa0p7EMs5p02E
sDgN/IKnac+P8CzldmJKb8cr7ov4Pp0Fknp4YO+ymS9VvKPc68bt0BBU5lOU6g2j
gGEPr3uktn9X6/B3S2+T4jDRiMXh4Q==
-----END CERTIFICATE-----
